; ModuleID = 'C:/Users/dougo/LDPC_Out/solution1/.autopilot/db/a.o.3.bc'
target datalayout = "e-p:32:32:32-i1:8:8-i8:8:8-i16:16:16-i32:32:32-i64:64:64-f32:32:32-f64:64:64-f80:128:128-v64:64:64-v128:128:128-a0:0:64-f80:32:32-n8:16:32-S32"
target triple = "i686-pc-mingw32"

@zero = internal unnamed_addr global i1 false, align 1 ; [#uses=3 type=i1*]
@trig = internal unnamed_addr global i16 127, align 2 ; [#uses=2 type=i16*]
@read_cnt_start = internal unnamed_addr global i16 -1, align 2 ; [#uses=3 type=i16*]
@read_cnt = internal unnamed_addr global i16 0, align 2 ; [#uses=3 type=i16*]
@pos = internal unnamed_addr global i16 0, align 2 ; [#uses=3 type=i16*]
@mux = internal unnamed_addr global i1 true, align 1 ; [#uses=2 type=i1*]
@mem = internal unnamed_addr global i16 0, align 2 ; [#uses=3 type=i16*]
@max = internal unnamed_addr global i16 1024, align 2 ; [#uses=2 type=i16*]
@llvm_global_ctors_1 = appending global [1 x void ()*] [void ()* @_GLOBAL__I_a] ; [#uses=0 type=[1 x void ()*]*]
@llvm_global_ctors_0 = appending global [1 x i32] [i32 65535] ; [#uses=0 type=[1 x i32]*]
@LDPC_Out_str = internal unnamed_addr constant [9 x i8] c"LDPC_Out\00" ; [#uses=1 type=[9 x i8]*]
@p_str = private unnamed_addr constant [1 x i8] zeroinitializer, align 1 ; [#uses=1 type=[1 x i8]*]

; [#uses=27]
declare void @llvm.dbg.value(metadata, i64, metadata) nounwind readnone

; [#uses=2]
define weak void @_ssdm_op_Write.ap_auto.i1P(i1*, i1) {
entry:
  store i1 %1, i1* %0
  ret void
}

; [#uses=1]
define weak void @_ssdm_op_Write.ap_auto.i16P(i16*, i16) {
entry:
  store i16 %1, i16* %0
  ret void
}

; [#uses=1]
define weak void @_ssdm_op_SpecTopModule(...) {
entry:
  ret void
}

; [#uses=1]
define weak void @_ssdm_op_SpecPipeline(...) nounwind {
entry:
  ret void
}

; [#uses=14]
define weak void @_ssdm_op_SpecBitsMap(...) {
entry:
  ret void
}

; [#uses=1]
define weak i16 @_ssdm_op_Read.ap_auto.i16(i16) {
entry:
  ret i16 %0
}

; [#uses=2]
define weak i1 @_ssdm_op_Read.ap_auto.i1(i1) {
entry:
  ret i1 %0
}

; [#uses=0]
declare i13 @_ssdm_op_PartSelect.i13.i16.i32.i32(i16, i32, i32) nounwind readnone

; [#uses=1]
define weak i1 @_ssdm_op_BitSelect.i1.i16.i32(i16, i32) nounwind readnone {
entry:
  %empty = trunc i32 %1 to i16                    ; [#uses=1 type=i16]
  %empty_2 = shl i16 1, %empty                    ; [#uses=1 type=i16]
  %empty_3 = and i16 %0, %empty_2                 ; [#uses=1 type=i16]
  %empty_4 = icmp ne i16 %empty_3, 0              ; [#uses=1 type=i1]
  ret i1 %empty_4
}

; [#uses=1]
declare void @_GLOBAL__I_a() nounwind

; [#uses=0]
define void @LDPC_Out(i1* %data_out, i1 zeroext %reset, i16* %cur_read_pos_V, i16 %numbits_V, i1 zeroext %rd_clk_in, i1* %rd_mux, [2048 x i1]* %mem_out0, [2048 x i1]* %mem_out1, [1024 x i1]* %mem_out2, [1024 x i1]* %mem_out3, [1024 x i1]* %mem_out4, [1024 x i1]* %mem_out5, [1024 x i1]* %mem_out6, [1024 x i1]* %mem_out7) {
  call void (...)* @_ssdm_op_SpecBitsMap(i1* %data_out), !map !40
  call void (...)* @_ssdm_op_SpecBitsMap(i1 %reset), !map !44
  call void (...)* @_ssdm_op_SpecBitsMap(i16* %cur_read_pos_V), !map !50
  call void (...)* @_ssdm_op_SpecBitsMap(i16 %numbits_V), !map !54
  call void (...)* @_ssdm_op_SpecBitsMap(i1 %rd_clk_in), !map !58
  call void (...)* @_ssdm_op_SpecBitsMap(i1* %rd_mux), !map !62
  call void (...)* @_ssdm_op_SpecBitsMap([2048 x i1]* %mem_out0), !map !66
  call void (...)* @_ssdm_op_SpecBitsMap([2048 x i1]* %mem_out1), !map !72
  call void (...)* @_ssdm_op_SpecBitsMap([1024 x i1]* %mem_out2), !map !76
  call void (...)* @_ssdm_op_SpecBitsMap([1024 x i1]* %mem_out3), !map !82
  call void (...)* @_ssdm_op_SpecBitsMap([1024 x i1]* %mem_out4), !map !86
  call void (...)* @_ssdm_op_SpecBitsMap([1024 x i1]* %mem_out5), !map !90
  call void (...)* @_ssdm_op_SpecBitsMap([1024 x i1]* %mem_out6), !map !94
  call void (...)* @_ssdm_op_SpecBitsMap([1024 x i1]* %mem_out7), !map !98
  call void (...)* @_ssdm_op_SpecTopModule([9 x i8]* @LDPC_Out_str) nounwind
  %rd_clk_in_read = call i1 @_ssdm_op_Read.ap_auto.i1(i1 %rd_clk_in) ; [#uses=1 type=i1]
  call void @llvm.dbg.value(metadata !{i1 %rd_clk_in_read}, i64 0, metadata !102), !dbg !745 ; [debug line = 30:27] [debug variable = rd_clk_in]
  %numbits_V_read = call i16 @_ssdm_op_Read.ap_auto.i16(i16 %numbits_V) ; [#uses=5 type=i16]
  %reset_read = call i1 @_ssdm_op_Read.ap_auto.i1(i1 %reset) ; [#uses=1 type=i1]
  call void @llvm.dbg.value(metadata !{i1 %reset_read}, i64 0, metadata !746), !dbg !747 ; [debug line = 29:37] [debug variable = reset]
  call void @llvm.dbg.value(metadata !{i1* %data_out}, i64 0, metadata !748), !dbg !749 ; [debug line = 29:22] [debug variable = data_out]
  call void @llvm.dbg.value(metadata !{i1 %reset}, i64 0, metadata !746), !dbg !747 ; [debug line = 29:37] [debug variable = reset]
  call void @llvm.dbg.value(metadata !{i16* %cur_read_pos_V}, i64 0, metadata !750), !dbg !759 ; [debug line = 29:53] [debug variable = cur_read_pos.V]
  call void @llvm.dbg.value(metadata !{i1 %rd_clk_in}, i64 0, metadata !102), !dbg !745 ; [debug line = 30:27] [debug variable = rd_clk_in]
  call void @llvm.dbg.value(metadata !{i1* %rd_mux}, i64 0, metadata !760), !dbg !761 ; [debug line = 30:44] [debug variable = rd_mux]
  call void @llvm.dbg.value(metadata !{[2048 x i1]* %mem_out0}, i64 0, metadata !762), !dbg !766 ; [debug line = 30:57] [debug variable = mem_out0]
  call void @llvm.dbg.value(metadata !{[2048 x i1]* %mem_out1}, i64 0, metadata !767), !dbg !768 ; [debug line = 30:78] [debug variable = mem_out1]
  call void @llvm.dbg.value(metadata !{[1024 x i1]* %mem_out2}, i64 0, metadata !769), !dbg !773 ; [debug line = 30:99] [debug variable = mem_out2]
  call void @llvm.dbg.value(metadata !{[1024 x i1]* %mem_out3}, i64 0, metadata !774), !dbg !775 ; [debug line = 31:10] [debug variable = mem_out3]
  call void @llvm.dbg.value(metadata !{[1024 x i1]* %mem_out4}, i64 0, metadata !776), !dbg !777 ; [debug line = 31:31] [debug variable = mem_out4]
  call void @llvm.dbg.value(metadata !{[1024 x i1]* %mem_out5}, i64 0, metadata !778), !dbg !779 ; [debug line = 31:52] [debug variable = mem_out5]
  call void @llvm.dbg.value(metadata !{[1024 x i1]* %mem_out6}, i64 0, metadata !780), !dbg !781 ; [debug line = 31:73] [debug variable = mem_out6]
  call void @llvm.dbg.value(metadata !{[1024 x i1]* %mem_out7}, i64 0, metadata !782), !dbg !783 ; [debug line = 31:94] [debug variable = mem_out7]
  call void (...)* @_ssdm_op_SpecPipeline(i32 -1, i32 1, i32 1, i32 0, [1 x i8]* @p_str) nounwind, !dbg !784 ; [debug line = 33:1]
  %zero_load = load i1* @zero, align 1, !dbg !786 ; [#uses=2 type=i1] [debug line = 39:2]
  %max_load = load i16* @max, align 2, !dbg !787  ; [#uses=2 type=i16] [debug line = 74:2]
  %tmp_8 = trunc i16 %max_load to i13, !dbg !787  ; [#uses=2 type=i13] [debug line = 74:2]
  %read_cnt_load = load i16* @read_cnt, align 2, !dbg !787 ; [#uses=5 type=i16] [debug line = 74:2]
  %pos_load = load i16* @pos, align 2, !dbg !788  ; [#uses=3 type=i16] [debug line = 91:5]
  br i1 %reset_read, label %1, label %.critedge, !dbg !786 ; [debug line = 39:2]

; <label>:1                                       ; preds = %0
  br i1 %zero_load, label %_ifconv, label %.critedge._crit_edge, !dbg !786 ; [debug line = 39:2]

_ifconv:                                          ; preds = %1
  store i1 false, i1* @zero, align 1, !dbg !792   ; [debug line = 41:3]
  %tmp = icmp eq i16 %numbits_V_read, 1280, !dbg !794 ; [#uses=3 type=i1] [debug line = 1977:9@3526:0@42:7]
  %tmp_2 = icmp eq i16 %numbits_V_read, 5120, !dbg !1343 ; [#uses=2 type=i1] [debug line = 1977:9@3526:0@47:12]
  %tmp_4 = icmp eq i16 %numbits_V_read, 1536, !dbg !1346 ; [#uses=2 type=i1] [debug line = 1977:9@3526:0@52:12]
  %tmp_5 = icmp eq i16 %numbits_V_read, 6144, !dbg !1349 ; [#uses=1 type=i1] [debug line = 1977:9@3526:0@57:12]
  %tmp_6 = icmp eq i16 %numbits_V_read, 8192, !dbg !1352 ; [#uses=2 type=i1] [debug line = 1977:9@3526:0@62:12]
  %storemerge1 = select i1 %tmp_6, i13 -4096, i13 1024, !dbg !1354 ; [#uses=1 type=i13] [debug line = 62:12]
  %sel_tmp1 = xor i1 %tmp, true, !dbg !794        ; [#uses=1 type=i1] [debug line = 1977:9@3526:0@42:7]
  %sel_tmp2 = and i1 %tmp_2, %sel_tmp1            ; [#uses=3 type=i1]
  %sel_tmp = select i1 %sel_tmp2, i13 -4096, i13 1024 ; [#uses=1 type=i13]
  %tmp_9 = or i1 %sel_tmp2, %tmp                  ; [#uses=2 type=i1]
  %sel_tmp3 = select i1 %tmp_9, i13 %sel_tmp, i13 %storemerge1 ; [#uses=1 type=i13]
  %sel_tmp6_demorgan = or i1 %tmp, %tmp_2         ; [#uses=2 type=i1]
  %sel_tmp6 = xor i1 %sel_tmp6_demorgan, true     ; [#uses=1 type=i1]
  %sel_tmp7 = and i1 %tmp_4, %sel_tmp6            ; [#uses=1 type=i1]
  %sel_tmp13_demorgan = or i1 %sel_tmp6_demorgan, %tmp_4 ; [#uses=1 type=i1]
  %sel_tmp4 = xor i1 %sel_tmp13_demorgan, true    ; [#uses=1 type=i1]
  %sel_tmp5 = and i1 %tmp_5, %sel_tmp4            ; [#uses=3 type=i1]
  %sel_tmp8 = select i1 %sel_tmp5, i13 -4096, i13 1024 ; [#uses=1 type=i13]
  %tmp_11 = or i1 %sel_tmp5, %sel_tmp7            ; [#uses=3 type=i1]
  %storemerge3 = select i1 %tmp_11, i13 %sel_tmp8, i13 %sel_tmp3 ; [#uses=2 type=i13]
  %storemerge3_cast = zext i13 %storemerge3 to i16 ; [#uses=1 type=i16]
  %newSel_cast_cast = select i1 %sel_tmp5, i10 -1, i10 255 ; [#uses=1 type=i10]
  %newSel49_cast_cast = select i1 %sel_tmp2, i10 511, i10 127 ; [#uses=1 type=i10]
  %newSel51_cast_cast = select i1 %tmp_6, i11 -1, i11 511 ; [#uses=1 type=i11]
  %newSel = select i1 %tmp_11, i10 %newSel_cast_cast, i10 %newSel49_cast_cast ; [#uses=1 type=i10]
  %newSel53_cast = zext i10 %newSel to i11        ; [#uses=1 type=i11]
  %or_cond2 = or i1 %tmp_11, %tmp_9               ; [#uses=1 type=i1]
  %newSel1 = select i1 %or_cond2, i11 %newSel53_cast, i11 %newSel51_cast_cast ; [#uses=1 type=i11]
  %newSel55_cast = zext i11 %newSel1 to i16       ; [#uses=1 type=i16]
  store i16 %storemerge3_cast, i16* @max, align 2, !dbg !1355 ; [debug line = 44:4]
  store i16 %newSel55_cast, i16* @trig, align 2, !dbg !1357 ; [debug line = 45:4]
  br label %.critedge._crit_edge, !dbg !1358      ; [debug line = 72:2]

.critedge:                                        ; preds = %0
  %tmp_1 = icmp slt i16 %read_cnt_load, %max_load, !dbg !787 ; [#uses=1 type=i1] [debug line = 74:2]
  %or_cond = or i1 %zero_load, %tmp_1, !dbg !787  ; [#uses=1 type=i1] [debug line = 74:2]
  br i1 %or_cond, label %.critedge._crit_edge, label %2, !dbg !787 ; [debug line = 74:2]

; <label>:2                                       ; preds = %.critedge
  store i16 0, i16* @pos, align 2, !dbg !1359     ; [debug line = 76:3]
  store i16 0, i16* @read_cnt, align 2, !dbg !1361 ; [debug line = 77:3]
  store i16 -1, i16* @read_cnt_start, align 2, !dbg !1362 ; [debug line = 78:3]
  store i16 0, i16* @mem, align 2, !dbg !1363     ; [debug line = 79:3]
  store i1 true, i1* @zero, align 1, !dbg !1364   ; [debug line = 80:3]
  %mux_load = load i1* @mux, align 1, !dbg !1365  ; [#uses=1 type=i1] [debug line = 81:3]
  %tmp_3 = xor i1 %mux_load, true, !dbg !1365     ; [#uses=2 type=i1] [debug line = 81:3]
  store i1 %tmp_3, i1* @mux, align 1, !dbg !1365  ; [debug line = 81:3]
  call void @_ssdm_op_Write.ap_auto.i1P(i1* %rd_mux, i1 %tmp_3), !dbg !1366 ; [debug line = 82:3]
  br label %._crit_edge63, !dbg !1367             ; [debug line = 83:2]

.critedge._crit_edge:                             ; preds = %.critedge, %_ifconv, %1
  %max_loc_1 = phi i13 [ %tmp_8, %.critedge ], [ %storemerge3, %_ifconv ], [ %tmp_8, %1 ] ; [#uses=1 type=i13]
  %max_loc_1_cast = zext i13 %max_loc_1 to i16, !dbg !1368 ; [#uses=1 type=i16] [debug line = 84:7]
  %tmp_7 = icmp slt i16 %read_cnt_load, %max_loc_1_cast, !dbg !1368 ; [#uses=1 type=i1] [debug line = 84:7]
  %or_cond1 = and i1 %tmp_7, %rd_clk_in_read, !dbg !1368 ; [#uses=1 type=i1] [debug line = 84:7]
  br i1 %or_cond1, label %3, label %._crit_edge63, !dbg !1368 ; [debug line = 84:7]

; <label>:3                                       ; preds = %.critedge._crit_edge
  %read_cnt_start_load = load i16* @read_cnt_start, align 2, !dbg !1369 ; [#uses=2 type=i16] [debug line = 86:3]
  %tmp_16 = call i1 @_ssdm_op_BitSelect.i1.i16.i32(i16 %read_cnt_start_load, i32 15), !dbg !1369 ; [#uses=1 type=i1] [debug line = 86:3]
  br i1 %tmp_16, label %7, label %_ifconv32, !dbg !1369 ; [debug line = 86:3]

_ifconv32:                                        ; preds = %3
  %mem_load = load i16* @mem, align 2, !dbg !1370 ; [#uses=8 type=i16] [debug line = 88:4]
  %tmp_10 = sext i16 %pos_load to i32, !dbg !788  ; [#uses=8 type=i32] [debug line = 91:5]
  %mem_out0_addr = getelementptr [2048 x i1]* %mem_out0, i32 0, i32 %tmp_10, !dbg !788 ; [#uses=1 type=i1*] [debug line = 91:5]
  %data = load i1* %mem_out0_addr, align 1, !dbg !788 ; [#uses=1 type=i1] [debug line = 91:5]
  call void @llvm.dbg.value(metadata !{i1 %data}, i64 0, metadata !1371), !dbg !788 ; [debug line = 91:5] [debug variable = data]
  %mem_out1_addr = getelementptr [2048 x i1]* %mem_out1, i32 0, i32 %tmp_10, !dbg !1372 ; [#uses=1 type=i1*] [debug line = 95:5]
  %data_1 = load i1* %mem_out1_addr, align 1, !dbg !1372 ; [#uses=1 type=i1] [debug line = 95:5]
  call void @llvm.dbg.value(metadata !{i1 %data_1}, i64 0, metadata !1371), !dbg !1372 ; [debug line = 95:5] [debug variable = data]
  %mem_out2_addr = getelementptr [1024 x i1]* %mem_out2, i32 0, i32 %tmp_10, !dbg !1373 ; [#uses=1 type=i1*] [debug line = 99:5]
  %data_2 = load i1* %mem_out2_addr, align 1, !dbg !1373 ; [#uses=1 type=i1] [debug line = 99:5]
  call void @llvm.dbg.value(metadata !{i1 %data_2}, i64 0, metadata !1371), !dbg !1373 ; [debug line = 99:5] [debug variable = data]
  %mem_out3_addr = getelementptr [1024 x i1]* %mem_out3, i32 0, i32 %tmp_10, !dbg !1374 ; [#uses=1 type=i1*] [debug line = 103:5]
  %data_3 = load i1* %mem_out3_addr, align 1, !dbg !1374 ; [#uses=1 type=i1] [debug line = 103:5]
  call void @llvm.dbg.value(metadata !{i1 %data_3}, i64 0, metadata !1371), !dbg !1374 ; [debug line = 103:5] [debug variable = data]
  %mem_out4_addr = getelementptr [1024 x i1]* %mem_out4, i32 0, i32 %tmp_10, !dbg !1375 ; [#uses=1 type=i1*] [debug line = 107:5]
  %data_4 = load i1* %mem_out4_addr, align 1, !dbg !1375 ; [#uses=1 type=i1] [debug line = 107:5]
  call void @llvm.dbg.value(metadata !{i1 %data_4}, i64 0, metadata !1371), !dbg !1375 ; [debug line = 107:5] [debug variable = data]
  %mem_out5_addr = getelementptr [1024 x i1]* %mem_out5, i32 0, i32 %tmp_10, !dbg !1376 ; [#uses=1 type=i1*] [debug line = 111:5]
  %data_5 = load i1* %mem_out5_addr, align 1, !dbg !1376 ; [#uses=1 type=i1] [debug line = 111:5]
  call void @llvm.dbg.value(metadata !{i1 %data_5}, i64 0, metadata !1371), !dbg !1376 ; [debug line = 111:5] [debug variable = data]
  %mem_out6_addr = getelementptr [1024 x i1]* %mem_out6, i32 0, i32 %tmp_10, !dbg !1377 ; [#uses=1 type=i1*] [debug line = 115:5]
  %data_6 = load i1* %mem_out6_addr, align 1, !dbg !1377 ; [#uses=1 type=i1] [debug line = 115:5]
  call void @llvm.dbg.value(metadata !{i1 %data_6}, i64 0, metadata !1371), !dbg !1377 ; [debug line = 115:5] [debug variable = data]
  %mem_out7_addr = getelementptr [1024 x i1]* %mem_out7, i32 0, i32 %tmp_10, !dbg !1378 ; [#uses=1 type=i1*] [debug line = 119:5]
  %data_7 = load i1* %mem_out7_addr, align 1, !dbg !1378 ; [#uses=1 type=i1] [debug line = 119:5]
  call void @llvm.dbg.value(metadata !{i1 %data_7}, i64 0, metadata !1371), !dbg !1378 ; [debug line = 119:5] [debug variable = data]
  %sel_tmp9 = icmp eq i16 %mem_load, 6            ; [#uses=1 type=i1]
  %sel_tmp10 = icmp eq i16 %mem_load, 5           ; [#uses=1 type=i1]
  %sel_tmp11 = icmp eq i16 %mem_load, 4           ; [#uses=2 type=i1]
  %sel_tmp12 = icmp eq i16 %mem_load, 3           ; [#uses=1 type=i1]
  %sel_tmp13 = icmp eq i16 %mem_load, 2           ; [#uses=2 type=i1]
  %sel_tmp14 = icmp eq i16 %mem_load, 1           ; [#uses=1 type=i1]
  %sel_tmp15 = icmp eq i16 %mem_load, 0           ; [#uses=2 type=i1]
  %newSel2 = select i1 %sel_tmp15, i1 %data, i1 %data_1 ; [#uses=1 type=i1]
  %or_cond3 = or i1 %sel_tmp15, %sel_tmp14        ; [#uses=2 type=i1]
  %newSel3 = select i1 %sel_tmp13, i1 %data_2, i1 %data_3 ; [#uses=1 type=i1]
  %or_cond4 = or i1 %sel_tmp13, %sel_tmp12        ; [#uses=1 type=i1]
  %newSel4 = select i1 %sel_tmp11, i1 %data_4, i1 %data_5 ; [#uses=1 type=i1]
  %or_cond5 = or i1 %sel_tmp11, %sel_tmp10        ; [#uses=1 type=i1]
  %newSel5 = select i1 %sel_tmp9, i1 %data_6, i1 %data_7 ; [#uses=1 type=i1]
  %newSel6 = select i1 %or_cond3, i1 %newSel2, i1 %newSel3 ; [#uses=1 type=i1]
  %or_cond6 = or i1 %or_cond3, %or_cond4          ; [#uses=1 type=i1]
  %newSel7 = select i1 %or_cond5, i1 %newSel4, i1 %newSel5 ; [#uses=1 type=i1]
  %data_8 = select i1 %or_cond6, i1 %newSel6, i1 %newSel7 ; [#uses=1 type=i1]
  call void @llvm.dbg.value(metadata !{i1 %data_8}, i64 0, metadata !1371), !dbg !1377 ; [debug line = 115:5] [debug variable = data]
  %trig_load = load i16* @trig, align 2, !dbg !1379 ; [#uses=1 type=i16] [debug line = 124:4]
  %tmp_12 = icmp eq i16 %pos_load, %trig_load, !dbg !1379 ; [#uses=1 type=i1] [debug line = 124:4]
  br i1 %tmp_12, label %4, label %5, !dbg !1379   ; [debug line = 124:4]

; <label>:4                                       ; preds = %_ifconv32
  %tmp_13 = add i16 %mem_load, 1, !dbg !1380      ; [#uses=1 type=i16] [debug line = 126:5]
  store i16 %tmp_13, i16* @mem, align 2, !dbg !1380 ; [debug line = 126:5]
  br label %6, !dbg !1382                         ; [debug line = 128:4]

; <label>:5                                       ; preds = %_ifconv32
  %tmp_14 = add i16 %pos_load, 1, !dbg !1383      ; [#uses=1 type=i16] [debug line = 130:5]
  br label %6

; <label>:6                                       ; preds = %5, %4
  %storemerge = phi i16 [ %tmp_14, %5 ], [ 0, %4 ] ; [#uses=1 type=i16]
  store i16 %storemerge, i16* @pos, align 2, !dbg !1384 ; [debug line = 127:5]
  call void @_ssdm_op_Write.ap_auto.i1P(i1* %data_out, i1 %data_8), !dbg !1385 ; [debug line = 132:4]
  %tmp_15 = add i16 %read_cnt_load, 1, !dbg !1386 ; [#uses=2 type=i16] [debug line = 133:4]
  store i16 %tmp_15, i16* @read_cnt, align 2, !dbg !1386 ; [debug line = 133:4]
  br label %._crit_edge63, !dbg !1387             ; [debug line = 134:3]

; <label>:7                                       ; preds = %3
  %tmp_s = add i16 %read_cnt_start_load, 1, !dbg !1388 ; [#uses=1 type=i16] [debug line = 136:4]
  store i16 %tmp_s, i16* @read_cnt_start, align 2, !dbg !1388 ; [debug line = 136:4]
  br label %._crit_edge63

._crit_edge63:                                    ; preds = %7, %6, %.critedge._crit_edge, %2
  %val_assign = phi i16 [ 0, %2 ], [ %read_cnt_load, %.critedge._crit_edge ], [ %tmp_15, %6 ], [ %read_cnt_load, %7 ] ; [#uses=1 type=i16]
  call void @llvm.dbg.value(metadata !{i16 %val_assign}, i64 0, metadata !1389), !dbg !1391 ; [debug line = 248:57@143:2] [debug variable = val]
  call void @llvm.dbg.value(metadata !{i16 %val_assign}, i64 0, metadata !1393), !dbg !1395 ; [debug line = 248:57@248:79@143:2] [debug variable = val]
  call void @llvm.dbg.value(metadata !{i16* %cur_read_pos_V}, i64 0, metadata !1397), !dbg !1401 ; [debug line = 276:53@143:2] [debug variable = ssdm_int<16 + 1024 * 0, false>.V]
  call void @_ssdm_op_Write.ap_auto.i16P(i16* %cur_read_pos_V, i16 %val_assign), !dbg !1402 ; [debug line = 277:10@143:2]
  ret void, !dbg !1404                            ; [debug line = 145:1]
}

!opencl.kernels = !{!0, !7, !7, !13, !13, !19, !22, !28, !28, !13, !31}
!hls.encrypted.func = !{}
!llvm.map.gv = !{!33}

!0 = metadata !{null, metadata !1, metadata !2, metadata !3, metadata !4, metadata !5, metadata !6}
!1 = metadata !{metadata !"kernel_arg_addr_space", i32 1, i32 0, i32 1, i32 0, i32 0, i32 1, i32 1, i32 1, i32 1, i32 1, i32 1, i32 1, i32 1, i32 1}
!2 = metadata !{metadata !"kernel_arg_access_qual", metadata !"none", metadata !"none", metadata !"none", metadata !"none", metadata !"none", metadata !"none", metadata !"none", metadata !"none", metadata !"none", metadata !"none", metadata !"none", metadata !"none", metadata !"none", metadata !"none"}
!3 = metadata !{metadata !"kernel_arg_type", metadata !"_Bool*", metadata !"_Bool", metadata !"tab_int*", metadata !"tab_int", metadata !"_Bool", metadata !"_Bool*", metadata !"_Bool*", metadata !"_Bool*", metadata !"_Bool*", metadata !"_Bool*", metadata !"_Bool*", metadata !"_Bool*", metadata !"_Bool*", metadata !"_Bool*"}
!4 = metadata !{metadata !"kernel_arg_type_qual", metadata !"", metadata !"", metadata !"", metadata !"", metadata !"", metadata !"", metadata !"", metadata !"", metadata !"", metadata !"", metadata !"", metadata !"", metadata !"", metadata !""}
!5 = metadata !{metadata !"kernel_arg_name", metadata !"data_out", metadata !"reset", metadata !"cur_read_pos", metadata !"numbits", metadata !"rd_clk_in", metadata !"rd_mux", metadata !"mem_out0", metadata !"mem_out1", metadata !"mem_out2", metadata !"mem_out3", metadata !"mem_out4", metadata !"mem_out5", metadata !"mem_out6", metadata !"mem_out7"}
!6 = metadata !{metadata !"reqd_work_group_size", i32 1, i32 1, i32 1}
!7 = metadata !{null, metadata !8, metadata !9, metadata !10, metadata !11, metadata !12, metadata !6}
!8 = metadata !{metadata !"kernel_arg_addr_space", i32 0}
!9 = metadata !{metadata !"kernel_arg_access_qual", metadata !"none"}
!10 = metadata !{metadata !"kernel_arg_type", metadata !"short"}
!11 = metadata !{metadata !"kernel_arg_type_qual", metadata !""}
!12 = metadata !{metadata !"kernel_arg_name", metadata !"val"}
!13 = metadata !{null, metadata !14, metadata !15, metadata !16, metadata !17, metadata !18, metadata !6}
!14 = metadata !{metadata !"kernel_arg_addr_space"}
!15 = metadata !{metadata !"kernel_arg_access_qual"}
!16 = metadata !{metadata !"kernel_arg_type"}
!17 = metadata !{metadata !"kernel_arg_type_qual"}
!18 = metadata !{metadata !"kernel_arg_name"}
!19 = metadata !{null, metadata !8, metadata !9, metadata !20, metadata !11, metadata !21, metadata !6}
!20 = metadata !{metadata !"kernel_arg_type", metadata !"const ap_uint<16> &"}
!21 = metadata !{metadata !"kernel_arg_name", metadata !"op2"}
!22 = metadata !{null, metadata !23, metadata !24, metadata !25, metadata !26, metadata !27, metadata !6}
!23 = metadata !{metadata !"kernel_arg_addr_space", i32 0, i32 0}
!24 = metadata !{metadata !"kernel_arg_access_qual", metadata !"none", metadata !"none"}
!25 = metadata !{metadata !"kernel_arg_type", metadata !"const ap_int_base<16, false> &", metadata !"int"}
!26 = metadata !{metadata !"kernel_arg_type_qual", metadata !"", metadata !""}
!27 = metadata !{metadata !"kernel_arg_name", metadata !"op", metadata !"op2"}
!28 = metadata !{null, metadata !8, metadata !9, metadata !29, metadata !11, metadata !30, metadata !6}
!29 = metadata !{metadata !"kernel_arg_type", metadata !"int"}
!30 = metadata !{metadata !"kernel_arg_name", metadata !"op"}
!31 = metadata !{null, metadata !8, metadata !9, metadata !32, metadata !11, metadata !21, metadata !6}
!32 = metadata !{metadata !"kernel_arg_type", metadata !"const ap_int_base<32, true> &"}
!33 = metadata !{metadata !34, [1 x i32]* @llvm_global_ctors_0}
!34 = metadata !{metadata !35}
!35 = metadata !{i32 0, i32 31, metadata !36}
!36 = metadata !{metadata !37}
!37 = metadata !{metadata !"llvm.global_ctors.0", metadata !38, metadata !"", i32 0, i32 31}
!38 = metadata !{metadata !39}
!39 = metadata !{i32 0, i32 0, i32 1}
!40 = metadata !{metadata !41}
!41 = metadata !{i32 0, i32 0, metadata !42}
!42 = metadata !{metadata !43}
!43 = metadata !{metadata !"data_out", metadata !38, metadata !"bool", i32 0, i32 0}
!44 = metadata !{metadata !45}
!45 = metadata !{i32 0, i32 0, metadata !46}
!46 = metadata !{metadata !47}
!47 = metadata !{metadata !"reset", metadata !48, metadata !"bool", i32 0, i32 0}
!48 = metadata !{metadata !49}
!49 = metadata !{i32 0, i32 0, i32 0}
!50 = metadata !{metadata !51}
!51 = metadata !{i32 0, i32 15, metadata !52}
!52 = metadata !{metadata !53}
!53 = metadata !{metadata !"cur_read_pos.V", metadata !38, metadata !"uint16", i32 0, i32 15}
!54 = metadata !{metadata !55}
!55 = metadata !{i32 0, i32 15, metadata !56}
!56 = metadata !{metadata !57}
!57 = metadata !{metadata !"numbits.V", metadata !48, metadata !"uint16", i32 0, i32 15}
!58 = metadata !{metadata !59}
!59 = metadata !{i32 0, i32 0, metadata !60}
!60 = metadata !{metadata !61}
!61 = metadata !{metadata !"rd_clk_in", metadata !48, metadata !"bool", i32 0, i32 0}
!62 = metadata !{metadata !63}
!63 = metadata !{i32 0, i32 0, metadata !64}
!64 = metadata !{metadata !65}
!65 = metadata !{metadata !"rd_mux", metadata !38, metadata !"bool", i32 0, i32 0}
!66 = metadata !{metadata !67}
!67 = metadata !{i32 0, i32 0, metadata !68}
!68 = metadata !{metadata !69}
!69 = metadata !{metadata !"mem_out0", metadata !70, metadata !"bool", i32 0, i32 0}
!70 = metadata !{metadata !71}
!71 = metadata !{i32 0, i32 2047, i32 1}
!72 = metadata !{metadata !73}
!73 = metadata !{i32 0, i32 0, metadata !74}
!74 = metadata !{metadata !75}
!75 = metadata !{metadata !"mem_out1", metadata !70, metadata !"bool", i32 0, i32 0}
!76 = metadata !{metadata !77}
!77 = metadata !{i32 0, i32 0, metadata !78}
!78 = metadata !{metadata !79}
!79 = metadata !{metadata !"mem_out2", metadata !80, metadata !"bool", i32 0, i32 0}
!80 = metadata !{metadata !81}
!81 = metadata !{i32 0, i32 1023, i32 1}
!82 = metadata !{metadata !83}
!83 = metadata !{i32 0, i32 0, metadata !84}
!84 = metadata !{metadata !85}
!85 = metadata !{metadata !"mem_out3", metadata !80, metadata !"bool", i32 0, i32 0}
!86 = metadata !{metadata !87}
!87 = metadata !{i32 0, i32 0, metadata !88}
!88 = metadata !{metadata !89}
!89 = metadata !{metadata !"mem_out4", metadata !80, metadata !"bool", i32 0, i32 0}
!90 = metadata !{metadata !91}
!91 = metadata !{i32 0, i32 0, metadata !92}
!92 = metadata !{metadata !93}
!93 = metadata !{metadata !"mem_out5", metadata !80, metadata !"bool", i32 0, i32 0}
!94 = metadata !{metadata !95}
!95 = metadata !{i32 0, i32 0, metadata !96}
!96 = metadata !{metadata !97}
!97 = metadata !{metadata !"mem_out6", metadata !80, metadata !"bool", i32 0, i32 0}
!98 = metadata !{metadata !99}
!99 = metadata !{i32 0, i32 0, metadata !100}
!100 = metadata !{metadata !101}
!101 = metadata !{metadata !"mem_out7", metadata !80, metadata !"bool", i32 0, i32 0}
!102 = metadata !{i32 786689, metadata !103, metadata !"rd_clk_in", metadata !104, i32 83886110, metadata !108, i32 0, i32 0} ; [ DW_TAG_arg_variable ]
!103 = metadata !{i32 786478, i32 0, metadata !104, metadata !"LDPC_Out", metadata !"LDPC_Out", metadata !"_Z8LDPC_OutPbbP7ap_uintILi16EES1_bS_S_S_S_S_S_S_S_S_", metadata !104, i32 29, metadata !105, i1 false, i1 true, i32 0, i32 0, null, i32 256, i1 false, null, null, null, metadata !128, i32 32} ; [ DW_TAG_subprogram ]
!104 = metadata !{i32 786473, metadata !"LDPC_Out/LDPC_Out.cpp", metadata !"C:\5CUsers\5Cdougo", null} ; [ DW_TAG_file_type ]
!105 = metadata !{i32 786453, i32 0, metadata !"", i32 0, i32 0, i64 0, i64 0, i64 0, i32 0, null, metadata !106, i32 0, i32 0} ; [ DW_TAG_subroutine_type ]
!106 = metadata !{null, metadata !107, metadata !108, metadata !109, metadata !110, metadata !108, metadata !107, metadata !107, metadata !107, metadata !107, metadata !107, metadata !107, metadata !107, metadata !107, metadata !107}
!107 = metadata !{i32 786447, null, metadata !"", null, i32 0, i64 32, i64 32, i64 0, i32 0, metadata !108} ; [ DW_TAG_pointer_type ]
!108 = metadata !{i32 786468, null, metadata !"bool", null, i32 0, i64 8, i64 8, i64 0, i32 0, i32 2} ; [ DW_TAG_base_type ]
!109 = metadata !{i32 786447, null, metadata !"", null, i32 0, i64 32, i64 32, i64 0, i32 0, metadata !110} ; [ DW_TAG_pointer_type ]
!110 = metadata !{i32 786454, null, metadata !"tab_int", metadata !104, i32 14, i64 0, i64 0, i64 0, i32 0, metadata !111} ; [ DW_TAG_typedef ]
!111 = metadata !{i32 786434, null, metadata !"ap_uint<16>", metadata !112, i32 180, i64 16, i64 16, i32 0, i32 0, null, metadata !113, i32 0, null, metadata !744} ; [ DW_TAG_class_type ]
!112 = metadata !{i32 786473, metadata !"C:/Xilinx/Vivado_HLS/2016.3/common/technology/autopilot\5Cap_int.h", metadata !"C:\5CUsers\5Cdougo", null} ; [ DW_TAG_file_type ]
!113 = metadata !{metadata !114, metadata !675, metadata !679, metadata !682, metadata !685, metadata !688, metadata !691, metadata !694, metadata !697, metadata !700, metadata !703, metadata !706, metadata !709, metadata !712, metadata !715, metadata !718, metadata !721, metadata !724, metadata !731, metadata !736, metadata !740, metadata !743}
!114 = metadata !{i32 786460, metadata !111, null, metadata !112, i32 0, i64 0, i64 0, i64 0, i32 0, metadata !115} ; [ DW_TAG_inheritance ]
!115 = metadata !{i32 786434, null, metadata !"ap_int_base<16, false, true>", metadata !116, i32 1397, i64 16, i64 16, i32 0, i32 0, null, metadata !117, i32 0, null, metadata !673} ; [ DW_TAG_class_type ]
!116 = metadata !{i32 786473, metadata !"C:/Xilinx/Vivado_HLS/2016.3/common/technology/autopilot/ap_int_syn.h", metadata !"C:\5CUsers\5Cdougo", null} ; [ DW_TAG_file_type ]
!117 = metadata !{metadata !118, metadata !134, metadata !138, metadata !146, metadata !152, metadata !155, metadata !159, metadata !163, metadata !167, metadata !171, metadata !174, metadata !178, metadata !182, metadata !186, metadata !191, metadata !196, metadata !200, metadata !204, metadata !210, metadata !213, metadata !217, metadata !220, metadata !223, metadata !224, metadata !228, metadata !231, metadata !234, metadata !237, metadata !240, metadata !243, metadata !246, metadata !249, metadata !252, metadata !255, metadata !258, metadata !261, metadata !271, metadata !274, metadata !277, metadata !280, metadata !283, metadata !286, metadata !289, metadata !292, metadata !295, metadata !298, metadata !301, metadata !304, metadata !307, metadata !308, metadata !312, metadata !315, metadata !316, metadata !317, metadata !318, metadata !319, metadata !320, metadata !323, metadata !324, metadata !327, metadata !328, metadata !329, metadata !330, metadata !331, metadata !332, metadata !335, metadata !336, metadata !337, metadata !340, metadata !341, metadata !344, metadata !345, metadata !634, metadata !638, metadata !639, metadata !642, metadata !643, metadata !647, metadata !648, metadata !649, metadata !650, metadata !653, metadata !654, metadata !655, metadata !656, metadata !657, metadata !658, metadata !659, metadata !660, metadata !661, metadata !662, metadata !663, metadata !664, metadata !667, metadata !670}
!118 = metadata !{i32 786460, metadata !115, null, metadata !116, i32 0, i64 0, i64 0, i64 0, i32 0, metadata !119} ; [ DW_TAG_inheritance ]
!119 = metadata !{i32 786434, null, metadata !"ssdm_int<16 + 1024 * 0, false>", metadata !120, i32 18, i64 16, i64 16, i32 0, i32 0, null, metadata !121, i32 0, null, metadata !130} ; [ DW_TAG_class_type ]
!120 = metadata !{i32 786473, metadata !"C:/Xilinx/Vivado_HLS/2016.3/common/technology/autopilot/etc/autopilot_dt.def", metadata !"C:\5CUsers\5Cdougo", null} ; [ DW_TAG_file_type ]
!121 = metadata !{metadata !122, metadata !124}
!122 = metadata !{i32 786445, metadata !119, metadata !"V", metadata !120, i32 18, i64 16, i64 16, i64 0, i32 0, metadata !123} ; [ DW_TAG_member ]
!123 = metadata !{i32 786468, null, metadata !"uint16", null, i32 0, i64 16, i64 16, i64 0, i32 0, i32 7} ; [ DW_TAG_base_type ]
!124 = metadata !{i32 786478, i32 0, metadata !119, metadata !"ssdm_int", metadata !"ssdm_int", metadata !"", metadata !120, i32 18, metadata !125, i1 false, i1 false, i32 0, i32 0, null, i32 256, i1 false, null, null, i32 0, metadata !128, i32 18} ; [ DW_TAG_subprogram ]
!125 = metadata !{i32 786453, i32 0, metadata !"", i32 0, i32 0, i64 0, i64 0, i64 0, i32 0, null, metadata !126, i32 0, i32 0} ; [ DW_TAG_subroutine_type ]
!126 = metadata !{null, metadata !127}
!127 = metadata !{i32 786447, i32 0, metadata !"", i32 0, i32 0, i64 32, i64 32, i64 0, i32 64, metadata !119} ; [ DW_TAG_pointer_type ]
!128 = metadata !{metadata !129}
!129 = metadata !{i32 786468}                     ; [ DW_TAG_base_type ]
!130 = metadata !{metadata !131, metadata !133}
!131 = metadata !{i32 786480, null, metadata !"_AP_N", metadata !132, i64 16, null, i32 0, i32 0} ; [ DW_TAG_template_value_parameter ]
!132 = metadata !{i32 786468, null, metadata !"int", null, i32 0, i64 32, i64 32, i64 0, i32 0, i32 5} ; [ DW_TAG_base_type ]
!133 = metadata !{i32 786480, null, metadata !"_AP_S", metadata !108, i64 0, null, i32 0, i32 0} ; [ DW_TAG_template_value_parameter ]
!134 = metadata !{i32 786478, i32 0, metadata !115, metadata !"ap_int_base", metadata !"ap_int_base", metadata !"", metadata !116, i32 1438, metadata !135, i1 false, i1 false, i32 0, i32 0, null, i32 256, i1 false, null, null, i32 0, metadata !128, i32 1438} ; [ DW_TAG_subprogram ]
!135 = metadata !{i32 786453, i32 0, metadata !"", i32 0, i32 0, i64 0, i64 0, i64 0, i32 0, null, metadata !136, i32 0, i32 0} ; [ DW_TAG_subroutine_type ]
!136 = metadata !{null, metadata !137}
!137 = metadata !{i32 786447, i32 0, metadata !"", i32 0, i32 0, i64 32, i64 32, i64 0, i32 64, metadata !115} ; [ DW_TAG_pointer_type ]
!138 = metadata !{i32 786478, i32 0, metadata !115, metadata !"ap_int_base<16, false>", metadata !"ap_int_base<16, false>", metadata !"", metadata !116, i32 1450, metadata !139, i1 false, i1 false, i32 0, i32 0, null, i32 256, i1 false, null, metadata !143, i32 0, metadata !128, i32 1450} ; [ DW_TAG_subprogram ]
!139 = metadata !{i32 786453, i32 0, metadata !"", i32 0, i32 0, i64 0, i64 0, i64 0, i32 0, null, metadata !140, i32 0, i32 0} ; [ DW_TAG_subroutine_type ]
!140 = metadata !{null, metadata !137, metadata !141}
!141 = metadata !{i32 786448, null, null, null, i32 0, i64 0, i64 0, i64 0, i32 0, metadata !142} ; [ DW_TAG_reference_type ]
!142 = metadata !{i32 786470, null, metadata !"", null, i32 0, i64 0, i64 0, i64 0, i32 0, metadata !115} ; [ DW_TAG_const_type ]
!143 = metadata !{metadata !144, metadata !145}
!144 = metadata !{i32 786480, null, metadata !"_AP_W2", metadata !132, i64 16, null, i32 0, i32 0} ; [ DW_TAG_template_value_parameter ]
!145 = metadata !{i32 786480, null, metadata !"_AP_S2", metadata !108, i64 0, null, i32 0, i32 0} ; [ DW_TAG_template_value_parameter ]
!146 = metadata !{i32 786478, i32 0, metadata !115, metadata !"ap_int_base<16, false>", metadata !"ap_int_base<16, false>", metadata !"", metadata !116, i32 1453, metadata !147, i1 false, i1 false, i32 0, i32 0, null, i32 256, i1 false, null, metadata !143, i32 0, metadata !128, i32 1453} ; [ DW_TAG_subprogram ]
!147 = metadata !{i32 786453, i32 0, metadata !"", i32 0, i32 0, i64 0, i64 0, i64 0, i32 0, null, metadata !148, i32 0, i32 0} ; [ DW_TAG_subroutine_type ]
!148 = metadata !{null, metadata !137, metadata !149}
!149 = metadata !{i32 786448, null, null, null, i32 0, i64 0, i64 0, i64 0, i32 0, metadata !150} ; [ DW_TAG_reference_type ]
!150 = metadata !{i32 786470, null, metadata !"", null, i32 0, i64 0, i64 0, i64 0, i32 0, metadata !151} ; [ DW_TAG_const_type ]
!151 = metadata !{i32 786485, null, metadata !"", null, i32 0, i64 0, i64 0, i64 0, i32 0, metadata !115} ; [ DW_TAG_volatile_type ]
!152 = metadata !{i32 786478, i32 0, metadata !115, metadata !"ap_int_base", metadata !"ap_int_base", metadata !"", metadata !116, i32 1460, metadata !153, i1 false, i1 false, i32 0, i32 0, null, i32 384, i1 false, null, null, i32 0, metadata !128, i32 1460} ; [ DW_TAG_subprogram ]
!153 = metadata !{i32 786453, i32 0, metadata !"", i32 0, i32 0, i64 0, i64 0, i64 0, i32 0, null, metadata !154, i32 0, i32 0} ; [ DW_TAG_subroutine_type ]
!154 = metadata !{null, metadata !137, metadata !108}
!155 = metadata !{i32 786478, i32 0, metadata !115, metadata !"ap_int_base", metadata !"ap_int_base", metadata !"", metadata !116, i32 1461, metadata !156, i1 false, i1 false, i32 0, i32 0, null, i32 384, i1 false, null, null, i32 0, metadata !128, i32 1461} ; [ DW_TAG_subprogram ]
!156 = metadata !{i32 786453, i32 0, metadata !"", i32 0, i32 0, i64 0, i64 0, i64 0, i32 0, null, metadata !157, i32 0, i32 0} ; [ DW_TAG_subroutine_type ]
!157 = metadata !{null, metadata !137, metadata !158}
!158 = metadata !{i32 786468, null, metadata !"signed char", null, i32 0, i64 8, i64 8, i64 0, i32 0, i32 6} ; [ DW_TAG_base_type ]
!159 = metadata !{i32 786478, i32 0, metadata !115, metadata !"ap_int_base", metadata !"ap_int_base", metadata !"", metadata !116, i32 1462, metadata !160, i1 false, i1 false, i32 0, i32 0, null, i32 384, i1 false, null, null, i32 0, metadata !128, i32 1462} ; [ DW_TAG_subprogram ]
!160 = metadata !{i32 786453, i32 0, metadata !"", i32 0, i32 0, i64 0, i64 0, i64 0, i32 0, null, metadata !161, i32 0, i32 0} ; [ DW_TAG_subroutine_type ]
!161 = metadata !{null, metadata !137, metadata !162}
!162 = metadata !{i32 786468, null, metadata !"unsigned char", null, i32 0, i64 8, i64 8, i64 0, i32 0, i32 8} ; [ DW_TAG_base_type ]
!163 = metadata !{i32 786478, i32 0, metadata !115, metadata !"ap_int_base", metadata !"ap_int_base", metadata !"", metadata !116, i32 1463, metadata !164, i1 false, i1 false, i32 0, i32 0, null, i32 384, i1 false, null, null, i32 0, metadata !128, i32 1463} ; [ DW_TAG_subprogram ]
!164 = metadata !{i32 786453, i32 0, metadata !"", i32 0, i32 0, i64 0, i64 0, i64 0, i32 0, null, metadata !165, i32 0, i32 0} ; [ DW_TAG_subroutine_type ]
!165 = metadata !{null, metadata !137, metadata !166}
!166 = metadata !{i32 786468, null, metadata !"short", null, i32 0, i64 16, i64 16, i64 0, i32 0, i32 5} ; [ DW_TAG_base_type ]
!167 = metadata !{i32 786478, i32 0, metadata !115, metadata !"ap_int_base", metadata !"ap_int_base", metadata !"", metadata !116, i32 1464, metadata !168, i1 false, i1 false, i32 0, i32 0, null, i32 384, i1 false, null, null, i32 0, metadata !128, i32 1464} ; [ DW_TAG_subprogram ]
!168 = metadata !{i32 786453, i32 0, metadata !"", i32 0, i32 0, i64 0, i64 0, i64 0, i32 0, null, metadata !169, i32 0, i32 0} ; [ DW_TAG_subroutine_type ]
!169 = metadata !{null, metadata !137, metadata !170}
!170 = metadata !{i32 786468, null, metadata !"unsigned short", null, i32 0, i64 16, i64 16, i64 0, i32 0, i32 7} ; [ DW_TAG_base_type ]
!171 = metadata !{i32 786478, i32 0, metadata !115, metadata !"ap_int_base", metadata !"ap_int_base", metadata !"", metadata !116, i32 1465, metadata !172, i1 false, i1 false, i32 0, i32 0, null, i32 384, i1 false, null, null, i32 0, metadata !128, i32 1465} ; [ DW_TAG_subprogram ]
!172 = metadata !{i32 786453, i32 0, metadata !"", i32 0, i32 0, i64 0, i64 0, i64 0, i32 0, null, metadata !173, i32 0, i32 0} ; [ DW_TAG_subroutine_type ]
!173 = metadata !{null, metadata !137, metadata !132}
!174 = metadata !{i32 786478, i32 0, metadata !115, metadata !"ap_int_base", metadata !"ap_int_base", metadata !"", metadata !116, i32 1466, metadata !175, i1 false, i1 false, i32 0, i32 0, null, i32 384, i1 false, null, null, i32 0, metadata !128, i32 1466} ; [ DW_TAG_subprogram ]
!175 = metadata !{i32 786453, i32 0, metadata !"", i32 0, i32 0, i64 0, i64 0, i64 0, i32 0, null, metadata !176, i32 0, i32 0} ; [ DW_TAG_subroutine_type ]
!176 = metadata !{null, metadata !137, metadata !177}
!177 = metadata !{i32 786468, null, metadata !"unsigned int", null, i32 0, i64 32, i64 32, i64 0, i32 0, i32 7} ; [ DW_TAG_base_type ]
!178 = metadata !{i32 786478, i32 0, metadata !115, metadata !"ap_int_base", metadata !"ap_int_base", metadata !"", metadata !116, i32 1467, metadata !179, i1 false, i1 false, i32 0, i32 0, null, i32 384, i1 false, null, null, i32 0, metadata !128, i32 1467} ; [ DW_TAG_subprogram ]
!179 = metadata !{i32 786453, i32 0, metadata !"", i32 0, i32 0, i64 0, i64 0, i64 0, i32 0, null, metadata !180, i32 0, i32 0} ; [ DW_TAG_subroutine_type ]
!180 = metadata !{null, metadata !137, metadata !181}
!181 = metadata !{i32 786468, null, metadata !"long int", null, i32 0, i64 32, i64 32, i64 0, i32 0, i32 5} ; [ DW_TAG_base_type ]
!182 = metadata !{i32 786478, i32 0, metadata !115, metadata !"ap_int_base", metadata !"ap_int_base", metadata !"", metadata !116, i32 1468, metadata !183, i1 false, i1 false, i32 0, i32 0, null, i32 384, i1 false, null, null, i32 0, metadata !128, i32 1468} ; [ DW_TAG_subprogram ]
!183 = metadata !{i32 786453, i32 0, metadata !"", i32 0, i32 0, i64 0, i64 0, i64 0, i32 0, null, metadata !184, i32 0, i32 0} ; [ DW_TAG_subroutine_type ]
!184 = metadata !{null, metadata !137, metadata !185}
!185 = metadata !{i32 786468, null, metadata !"long unsigned int", null, i32 0, i64 32, i64 32, i64 0, i32 0, i32 7} ; [ DW_TAG_base_type ]
!186 = metadata !{i32 786478, i32 0, metadata !115, metadata !"ap_int_base", metadata !"ap_int_base", metadata !"", metadata !116, i32 1469, metadata !187, i1 false, i1 false, i32 0, i32 0, null, i32 384, i1 false, null, null, i32 0, metadata !128, i32 1469} ; [ DW_TAG_subprogram ]
!187 = metadata !{i32 786453, i32 0, metadata !"", i32 0, i32 0, i64 0, i64 0, i64 0, i32 0, null, metadata !188, i32 0, i32 0} ; [ DW_TAG_subroutine_type ]
!188 = metadata !{null, metadata !137, metadata !189}
!189 = metadata !{i32 786454, null, metadata !"ap_slong", metadata !116, i32 111, i64 0, i64 0, i64 0, i32 0, metadata !190} ; [ DW_TAG_typedef ]
!190 = metadata !{i32 786468, null, metadata !"long long int", null, i32 0, i64 64, i64 64, i64 0, i32 0, i32 5} ; [ DW_TAG_base_type ]
!191 = metadata !{i32 786478, i32 0, metadata !115, metadata !"ap_int_base", metadata !"ap_int_base", metadata !"", metadata !116, i32 1470, metadata !192, i1 false, i1 false, i32 0, i32 0, null, i32 384, i1 false, null, null, i32 0, metadata !128, i32 1470} ; [ DW_TAG_subprogram ]
!192 = metadata !{i32 786453, i32 0, metadata !"", i32 0, i32 0, i64 0, i64 0, i64 0, i32 0, null, metadata !193, i32 0, i32 0} ; [ DW_TAG_subroutine_type ]
!193 = metadata !{null, metadata !137, metadata !194}
!194 = metadata !{i32 786454, null, metadata !"ap_ulong", metadata !116, i32 110, i64 0, i64 0, i64 0, i32 0, metadata !195} ; [ DW_TAG_typedef ]
!195 = metadata !{i32 786468, null, metadata !"long long unsigned int", null, i32 0, i64 64, i64 64, i64 0, i32 0, i32 7} ; [ DW_TAG_base_type ]
!196 = metadata !{i32 786478, i32 0, metadata !115, metadata !"ap_int_base", metadata !"ap_int_base", metadata !"", metadata !116, i32 1471, metadata !197, i1 false, i1 false, i32 0, i32 0, null, i32 384, i1 false, null, null, i32 0, metadata !128, i32 1471} ; [ DW_TAG_subprogram ]
!197 = metadata !{i32 786453, i32 0, metadata !"", i32 0, i32 0, i64 0, i64 0, i64 0, i32 0, null, metadata !198, i32 0, i32 0} ; [ DW_TAG_subroutine_type ]
!198 = metadata !{null, metadata !137, metadata !199}
!199 = metadata !{i32 786468, null, metadata !"float", null, i32 0, i64 32, i64 32, i64 0, i32 0, i32 4} ; [ DW_TAG_base_type ]
!200 = metadata !{i32 786478, i32 0, metadata !115, metadata !"ap_int_base", metadata !"ap_int_base", metadata !"", metadata !116, i32 1472, metadata !201, i1 false, i1 false, i32 0, i32 0, null, i32 384, i1 false, null, null, i32 0, metadata !128, i32 1472} ; [ DW_TAG_subprogram ]
!201 = metadata !{i32 786453, i32 0, metadata !"", i32 0, i32 0, i64 0, i64 0, i64 0, i32 0, null, metadata !202, i32 0, i32 0} ; [ DW_TAG_subroutine_type ]
!202 = metadata !{null, metadata !137, metadata !203}
!203 = metadata !{i32 786468, null, metadata !"double", null, i32 0, i64 64, i64 64, i64 0, i32 0, i32 4} ; [ DW_TAG_base_type ]
!204 = metadata !{i32 786478, i32 0, metadata !115, metadata !"ap_int_base", metadata !"ap_int_base", metadata !"", metadata !116, i32 1499, metadata !205, i1 false, i1 false, i32 0, i32 0, null, i32 256, i1 false, null, null, i32 0, metadata !128, i32 1499} ; [ DW_TAG_subprogram ]
!205 = metadata !{i32 786453, i32 0, metadata !"", i32 0, i32 0, i64 0, i64 0, i64 0, i32 0, null, metadata !206, i32 0, i32 0} ; [ DW_TAG_subroutine_type ]
!206 = metadata !{null, metadata !137, metadata !207}
!207 = metadata !{i32 786447, null, metadata !"", null, i32 0, i64 32, i64 32, i64 0, i32 0, metadata !208} ; [ DW_TAG_pointer_type ]
!208 = metadata !{i32 786470, null, metadata !"", null, i32 0, i64 0, i64 0, i64 0, i32 0, metadata !209} ; [ DW_TAG_const_type ]
!209 = metadata !{i32 786468, null, metadata !"char", null, i32 0, i64 8, i64 8, i64 0, i32 0, i32 6} ; [ DW_TAG_base_type ]
!210 = metadata !{i32 786478, i32 0, metadata !115, metadata !"ap_int_base", metadata !"ap_int_base", metadata !"", metadata !116, i32 1506, metadata !211, i1 false, i1 false, i32 0, i32 0, null, i32 256, i1 false, null, null, i32 0, metadata !128, i32 1506} ; [ DW_TAG_subprogram ]
!211 = metadata !{i32 786453, i32 0, metadata !"", i32 0, i32 0, i64 0, i64 0, i64 0, i32 0, null, metadata !212, i32 0, i32 0} ; [ DW_TAG_subroutine_type ]
!212 = metadata !{null, metadata !137, metadata !207, metadata !158}
!213 = metadata !{i32 786478, i32 0, metadata !115, metadata !"read", metadata !"read", metadata !"_ZNV11ap_int_baseILi16ELb0ELb1EE4readEv", metadata !116, i32 1527, metadata !214, i1 false, i1 false, i32 0, i32 0, null, i32 256, i1 false, null, null, i32 0, metadata !128, i32 1527} ; [ DW_TAG_subprogram ]
!214 = metadata !{i32 786453, i32 0, metadata !"", i32 0, i32 0, i64 0, i64 0, i64 0, i32 0, null, metadata !215, i32 0, i32 0} ; [ DW_TAG_subroutine_type ]
!215 = metadata !{metadata !115, metadata !216}
!216 = metadata !{i32 786447, i32 0, metadata !"", i32 0, i32 0, i64 32, i64 32, i64 0, i32 64, metadata !151} ; [ DW_TAG_pointer_type ]
!217 = metadata !{i32 786478, i32 0, metadata !115, metadata !"write", metadata !"write", metadata !"_ZNV11ap_int_baseILi16ELb0ELb1EE5writeERKS0_", metadata !116, i32 1533, metadata !218, i1 false, i1 false, i32 0, i32 0, null, i32 256, i1 false, null, null, i32 0, metadata !128, i32 1533} ; [ DW_TAG_subprogram ]
!218 = metadata !{i32 786453, i32 0, metadata !"", i32 0, i32 0, i64 0, i64 0, i64 0, i32 0, null, metadata !219, i32 0, i32 0} ; [ DW_TAG_subroutine_type ]
!219 = metadata !{null, metadata !216, metadata !141}
!220 = metadata !{i32 786478, i32 0, metadata !115, metadata !"operator=", metadata !"operator=", metadata !"_ZNV11ap_int_baseILi16ELb0ELb1EEaSERVKS0_", metadata !116, i32 1545, metadata !221, i1 false, i1 false, i32 0, i32 0, null, i32 256, i1 false, null, null, i32 0, metadata !128, i32 1545} ; [ DW_TAG_subprogram ]
!221 = metadata !{i32 786453, i32 0, metadata !"", i32 0, i32 0, i64 0, i64 0, i64 0, i32 0, null, metadata !222, i32 0, i32 0} ; [ DW_TAG_subroutine_type ]
!222 = metadata !{null, metadata !216, metadata !149}
!223 = metadata !{i32 786478, i32 0, metadata !115, metadata !"operator=", metadata !"operator=", metadata !"_ZNV11ap_int_baseILi16ELb0ELb1EEaSERKS0_", metadata !116, i32 1554, metadata !218, i1 false, i1 false, i32 0, i32 0, null, i32 256, i1 false, null, null, i32 0, metadata !128, i32 1554} ; [ DW_TAG_subprogram ]
!224 = metadata !{i32 786478, i32 0, metadata !115, metadata !"operator=", metadata !"operator=", metadata !"_ZN11ap_int_baseILi16ELb0ELb1EEaSERVKS0_", metadata !116, i32 1577, metadata !225, i1 false, i1 false, i32 0, i32 0, null, i32 256, i1 false, null, null, i32 0, metadata !128, i32 1577} ; [ DW_TAG_subprogram ]
!225 = metadata !{i32 786453, i32 0, metadata !"", i32 0, i32 0, i64 0, i64 0, i64 0, i32 0, null, metadata !226, i32 0, i32 0} ; [ DW_TAG_subroutine_type ]
!226 = metadata !{metadata !227, metadata !137, metadata !149}
!227 = metadata !{i32 786448, null, null, null, i32 0, i64 0, i64 0, i64 0, i32 0, metadata !115} ; [ DW_TAG_reference_type ]
!228 = metadata !{i32 786478, i32 0, metadata !115, metadata !"operator=", metadata !"operator=", metadata !"_ZN11ap_int_baseILi16ELb0ELb1EEaSERKS0_", metadata !116, i32 1582, metadata !229, i1 false, i1 false, i32 0, i32 0, null, i32 256, i1 false, null, null, i32 0, metadata !128, i32 1582} ; [ DW_TAG_subprogram ]
!229 = metadata !{i32 786453, i32 0, metadata !"", i32 0, i32 0, i64 0, i64 0, i64 0, i32 0, null, metadata !230, i32 0, i32 0} ; [ DW_TAG_subroutine_type ]
!230 = metadata !{metadata !227, metadata !137, metadata !141}
!231 = metadata !{i32 786478, i32 0, metadata !115, metadata !"operator=", metadata !"operator=", metadata !"_ZN11ap_int_baseILi16ELb0ELb1EEaSEPKc", metadata !116, i32 1586, metadata !232, i1 false, i1 false, i32 0, i32 0, null, i32 256, i1 false, null, null, i32 0, metadata !128, i32 1586} ; [ DW_TAG_subprogram ]
!232 = metadata !{i32 786453, i32 0, metadata !"", i32 0, i32 0, i64 0, i64 0, i64 0, i32 0, null, metadata !233, i32 0, i32 0} ; [ DW_TAG_subroutine_type ]
!233 = metadata !{metadata !227, metadata !137, metadata !207}
!234 = metadata !{i32 786478, i32 0, metadata !115, metadata !"set", metadata !"set", metadata !"_ZN11ap_int_baseILi16ELb0ELb1EE3setEPKca", metadata !116, i32 1594, metadata !235, i1 false, i1 false, i32 0, i32 0, null, i32 256, i1 false, null, null, i32 0, metadata !128, i32 1594} ; [ DW_TAG_subprogram ]
!235 = metadata !{i32 786453, i32 0, metadata !"", i32 0, i32 0, i64 0, i64 0, i64 0, i32 0, null, metadata !236, i32 0, i32 0} ; [ DW_TAG_subroutine_type ]
!236 = metadata !{metadata !227, metadata !137, metadata !207, metadata !158}
!237 = metadata !{i32 786478, i32 0, metadata !115, metadata !"operator=", metadata !"operator=", metadata !"_ZN11ap_int_baseILi16ELb0ELb1EEaSEa", metadata !116, i32 1608, metadata !238, i1 false, i1 false, i32 0, i32 0, null, i32 256, i1 false, null, null, i32 0, metadata !128, i32 1608} ; [ DW_TAG_subprogram ]
!238 = metadata !{i32 786453, i32 0, metadata !"", i32 0, i32 0, i64 0, i64 0, i64 0, i32 0, null, metadata !239, i32 0, i32 0} ; [ DW_TAG_subroutine_type ]
!239 = metadata !{metadata !227, metadata !137, metadata !158}
!240 = metadata !{i32 786478, i32 0, metadata !115, metadata !"operator=", metadata !"operator=", metadata !"_ZN11ap_int_baseILi16ELb0ELb1EEaSEh", metadata !116, i32 1609, metadata !241, i1 false, i1 false, i32 0, i32 0, null, i32 256, i1 false, null, null, i32 0, metadata !128, i32 1609} ; [ DW_TAG_subprogram ]
!241 = metadata !{i32 786453, i32 0, metadata !"", i32 0, i32 0, i64 0, i64 0, i64 0, i32 0, null, metadata !242, i32 0, i32 0} ; [ DW_TAG_subroutine_type ]
!242 = metadata !{metadata !227, metadata !137, metadata !162}
!243 = metadata !{i32 786478, i32 0, metadata !115, metadata !"operator=", metadata !"operator=", metadata !"_ZN11ap_int_baseILi16ELb0ELb1EEaSEs", metadata !116, i32 1610, metadata !244, i1 false, i1 false, i32 0, i32 0, null, i32 256, i1 false, null, null, i32 0, metadata !128, i32 1610} ; [ DW_TAG_subprogram ]
!244 = metadata !{i32 786453, i32 0, metadata !"", i32 0, i32 0, i64 0, i64 0, i64 0, i32 0, null, metadata !245, i32 0, i32 0} ; [ DW_TAG_subroutine_type ]
!245 = metadata !{metadata !227, metadata !137, metadata !166}
!246 = metadata !{i32 786478, i32 0, metadata !115, metadata !"operator=", metadata !"operator=", metadata !"_ZN11ap_int_baseILi16ELb0ELb1EEaSEt", metadata !116, i32 1611, metadata !247, i1 false, i1 false, i32 0, i32 0, null, i32 256, i1 false, null, null, i32 0, metadata !128, i32 1611} ; [ DW_TAG_subprogram ]
!247 = metadata !{i32 786453, i32 0, metadata !"", i32 0, i32 0, i64 0, i64 0, i64 0, i32 0, null, metadata !248, i32 0, i32 0} ; [ DW_TAG_subroutine_type ]
!248 = metadata !{metadata !227, metadata !137, metadata !170}
!249 = metadata !{i32 786478, i32 0, metadata !115, metadata !"operator=", metadata !"operator=", metadata !"_ZN11ap_int_baseILi16ELb0ELb1EEaSEi", metadata !116, i32 1612, metadata !250, i1 false, i1 false, i32 0, i32 0, null, i32 256, i1 false, null, null, i32 0, metadata !128, i32 1612} ; [ DW_TAG_subprogram ]
!250 = metadata !{i32 786453, i32 0, metadata !"", i32 0, i32 0, i64 0, i64 0, i64 0, i32 0, null, metadata !251, i32 0, i32 0} ; [ DW_TAG_subroutine_type ]
!251 = metadata !{metadata !227, metadata !137, metadata !132}
!252 = metadata !{i32 786478, i32 0, metadata !115, metadata !"operator=", metadata !"operator=", metadata !"_ZN11ap_int_baseILi16ELb0ELb1EEaSEj", metadata !116, i32 1613, metadata !253, i1 false, i1 false, i32 0, i32 0, null, i32 256, i1 false, null, null, i32 0, metadata !128, i32 1613} ; [ DW_TAG_subprogram ]
!253 = metadata !{i32 786453, i32 0, metadata !"", i32 0, i32 0, i64 0, i64 0, i64 0, i32 0, null, metadata !254, i32 0, i32 0} ; [ DW_TAG_subroutine_type ]
!254 = metadata !{metadata !227, metadata !137, metadata !177}
!255 = metadata !{i32 786478, i32 0, metadata !115, metadata !"operator=", metadata !"operator=", metadata !"_ZN11ap_int_baseILi16ELb0ELb1EEaSEx", metadata !116, i32 1614, metadata !256, i1 false, i1 false, i32 0, i32 0, null, i32 256, i1 false, null, null, i32 0, metadata !128, i32 1614} ; [ DW_TAG_subprogram ]
!256 = metadata !{i32 786453, i32 0, metadata !"", i32 0, i32 0, i64 0, i64 0, i64 0, i32 0, null, metadata !257, i32 0, i32 0} ; [ DW_TAG_subroutine_type ]
!257 = metadata !{metadata !227, metadata !137, metadata !189}
!258 = metadata !{i32 786478, i32 0, metadata !115, metadata !"operator=", metadata !"operator=", metadata !"_ZN11ap_int_baseILi16ELb0ELb1EEaSEy", metadata !116, i32 1615, metadata !259, i1 false, i1 false, i32 0, i32 0, null, i32 256, i1 false, null, null, i32 0, metadata !128, i32 1615} ; [ DW_TAG_subprogram ]
!259 = metadata !{i32 786453, i32 0, metadata !"", i32 0, i32 0, i64 0, i64 0, i64 0, i32 0, null, metadata !260, i32 0, i32 0} ; [ DW_TAG_subroutine_type ]
!260 = metadata !{metadata !227, metadata !137, metadata !194}
!261 = metadata !{i32 786478, i32 0, metadata !115, metadata !"operator unsigned short", metadata !"operator unsigned short", metadata !"_ZNK11ap_int_baseILi16ELb0ELb1EEcvtEv", metadata !116, i32 1653, metadata !262, i1 false, i1 false, i32 0, i32 0, null, i32 256, i1 false, null, null, i32 0, metadata !128, i32 1653} ; [ DW_TAG_subprogram ]
!262 = metadata !{i32 786453, i32 0, metadata !"", i32 0, i32 0, i64 0, i64 0, i64 0, i32 0, null, metadata !263, i32 0, i32 0} ; [ DW_TAG_subroutine_type ]
!263 = metadata !{metadata !264, metadata !270}
!264 = metadata !{i32 786454, metadata !115, metadata !"RetType", metadata !116, i32 1402, i64 0, i64 0, i64 0, i32 0, metadata !265} ; [ DW_TAG_typedef ]
!265 = metadata !{i32 786454, metadata !266, metadata !"Type", metadata !116, i32 1376, i64 0, i64 0, i64 0, i32 0, metadata !170} ; [ DW_TAG_typedef ]
!266 = metadata !{i32 786434, null, metadata !"retval<2, false>", metadata !116, i32 1375, i64 8, i64 8, i32 0, i32 0, null, metadata !267, i32 0, null, metadata !268} ; [ DW_TAG_class_type ]
!267 = metadata !{i32 0}
!268 = metadata !{metadata !269, metadata !133}
!269 = metadata !{i32 786480, null, metadata !"_AP_N", metadata !132, i64 2, null, i32 0, i32 0} ; [ DW_TAG_template_value_parameter ]
!270 = metadata !{i32 786447, i32 0, metadata !"", i32 0, i32 0, i64 32, i64 32, i64 0, i32 64, metadata !142} ; [ DW_TAG_pointer_type ]
!271 = metadata !{i32 786478, i32 0, metadata !115, metadata !"to_bool", metadata !"to_bool", metadata !"_ZNK11ap_int_baseILi16ELb0ELb1EE7to_boolEv", metadata !116, i32 1659, metadata !272, i1 false, i1 false, i32 0, i32 0, null, i32 256, i1 false, null, null, i32 0, metadata !128, i32 1659} ; [ DW_TAG_subprogram ]
!272 = metadata !{i32 786453, i32 0, metadata !"", i32 0, i32 0, i64 0, i64 0, i64 0, i32 0, null, metadata !273, i32 0, i32 0} ; [ DW_TAG_subroutine_type ]
!273 = metadata !{metadata !108, metadata !270}
!274 = metadata !{i32 786478, i32 0, metadata !115, metadata !"to_uchar", metadata !"to_uchar", metadata !"_ZNK11ap_int_baseILi16ELb0ELb1EE8to_ucharEv", metadata !116, i32 1660, metadata !275, i1 false, i1 false, i32 0, i32 0, null, i32 256, i1 false, null, null, i32 0, metadata !128, i32 1660} ; [ DW_TAG_subprogram ]
!275 = metadata !{i32 786453, i32 0, metadata !"", i32 0, i32 0, i64 0, i64 0, i64 0, i32 0, null, metadata !276, i32 0, i32 0} ; [ DW_TAG_subroutine_type ]
!276 = metadata !{metadata !162, metadata !270}
!277 = metadata !{i32 786478, i32 0, metadata !115, metadata !"to_char", metadata !"to_char", metadata !"_ZNK11ap_int_baseILi16ELb0ELb1EE7to_charEv", metadata !116, i32 1661, metadata !278, i1 false, i1 false, i32 0, i32 0, null, i32 256, i1 false, null, null, i32 0, metadata !128, i32 1661} ; [ DW_TAG_subprogram ]
!278 = metadata !{i32 786453, i32 0, metadata !"", i32 0, i32 0, i64 0, i64 0, i64 0, i32 0, null, metadata !279, i32 0, i32 0} ; [ DW_TAG_subroutine_type ]
!279 = metadata !{metadata !158, metadata !270}
!280 = metadata !{i32 786478, i32 0, metadata !115, metadata !"to_ushort", metadata !"to_ushort", metadata !"_ZNK11ap_int_baseILi16ELb0ELb1EE9to_ushortEv", metadata !116, i32 1662, metadata !281, i1 false, i1 false, i32 0, i32 0, null, i32 256, i1 false, null, null, i32 0, metadata !128, i32 1662} ; [ DW_TAG_subprogram ]
!281 = metadata !{i32 786453, i32 0, metadata !"", i32 0, i32 0, i64 0, i64 0, i64 0, i32 0, null, metadata !282, i32 0, i32 0} ; [ DW_TAG_subroutine_type ]
!282 = metadata !{metadata !170, metadata !270}
!283 = metadata !{i32 786478, i32 0, metadata !115, metadata !"to_short", metadata !"to_short", metadata !"_ZNK11ap_int_baseILi16ELb0ELb1EE8to_shortEv", metadata !116, i32 1663, metadata !284, i1 false, i1 false, i32 0, i32 0, null, i32 256, i1 false, null, null, i32 0, metadata !128, i32 1663} ; [ DW_TAG_subprogram ]
!284 = metadata !{i32 786453, i32 0, metadata !"", i32 0, i32 0, i64 0, i64 0, i64 0, i32 0, null, metadata !285, i32 0, i32 0} ; [ DW_TAG_subroutine_type ]
!285 = metadata !{metadata !166, metadata !270}
!286 = metadata !{i32 786478, i32 0, metadata !115, metadata !"to_int", metadata !"to_int", metadata !"_ZNK11ap_int_baseILi16ELb0ELb1EE6to_intEv", metadata !116, i32 1664, metadata !287, i1 false, i1 false, i32 0, i32 0, null, i32 256, i1 false, null, null, i32 0, metadata !128, i32 1664} ; [ DW_TAG_subprogram ]
!287 = metadata !{i32 786453, i32 0, metadata !"", i32 0, i32 0, i64 0, i64 0, i64 0, i32 0, null, metadata !288, i32 0, i32 0} ; [ DW_TAG_subroutine_type ]
!288 = metadata !{metadata !132, metadata !270}
!289 = metadata !{i32 786478, i32 0, metadata !115, metadata !"to_uint", metadata !"to_uint", metadata !"_ZNK11ap_int_baseILi16ELb0ELb1EE7to_uintEv", metadata !116, i32 1665, metadata !290, i1 false, i1 false, i32 0, i32 0, null, i32 256, i1 false, null, null, i32 0, metadata !128, i32 1665} ; [ DW_TAG_subprogram ]
!290 = metadata !{i32 786453, i32 0, metadata !"", i32 0, i32 0, i64 0, i64 0, i64 0, i32 0, null, metadata !291, i32 0, i32 0} ; [ DW_TAG_subroutine_type ]
!291 = metadata !{metadata !177, metadata !270}
!292 = metadata !{i32 786478, i32 0, metadata !115, metadata !"to_long", metadata !"to_long", metadata !"_ZNK11ap_int_baseILi16ELb0ELb1EE7to_longEv", metadata !116, i32 1666, metadata !293, i1 false, i1 false, i32 0, i32 0, null, i32 256, i1 false, null, null, i32 0, metadata !128, i32 1666} ; [ DW_TAG_subprogram ]
!293 = metadata !{i32 786453, i32 0, metadata !"", i32 0, i32 0, i64 0, i64 0, i64 0, i32 0, null, metadata !294, i32 0, i32 0} ; [ DW_TAG_subroutine_type ]
!294 = metadata !{metadata !181, metadata !270}
!295 = metadata !{i32 786478, i32 0, metadata !115, metadata !"to_ulong", metadata !"to_ulong", metadata !"_ZNK11ap_int_baseILi16ELb0ELb1EE8to_ulongEv", metadata !116, i32 1667, metadata !296, i1 false, i1 false, i32 0, i32 0, null, i32 256, i1 false, null, null, i32 0, metadata !128, i32 1667} ; [ DW_TAG_subprogram ]
!296 = metadata !{i32 786453, i32 0, metadata !"", i32 0, i32 0, i64 0, i64 0, i64 0, i32 0, null, metadata !297, i32 0, i32 0} ; [ DW_TAG_subroutine_type ]
!297 = metadata !{metadata !185, metadata !270}
!298 = metadata !{i32 786478, i32 0, metadata !115, metadata !"to_int64", metadata !"to_int64", metadata !"_ZNK11ap_int_baseILi16ELb0ELb1EE8to_int64Ev", metadata !116, i32 1668, metadata !299, i1 false, i1 false, i32 0, i32 0, null, i32 256, i1 false, null, null, i32 0, metadata !128, i32 1668} ; [ DW_TAG_subprogram ]
!299 = metadata !{i32 786453, i32 0, metadata !"", i32 0, i32 0, i64 0, i64 0, i64 0, i32 0, null, metadata !300, i32 0, i32 0} ; [ DW_TAG_subroutine_type ]
!300 = metadata !{metadata !189, metadata !270}
!301 = metadata !{i32 786478, i32 0, metadata !115, metadata !"to_uint64", metadata !"to_uint64", metadata !"_ZNK11ap_int_baseILi16ELb0ELb1EE9to_uint64Ev", metadata !116, i32 1669, metadata !302, i1 false, i1 false, i32 0, i32 0, null, i32 256, i1 false, null, null, i32 0, metadata !128, i32 1669} ; [ DW_TAG_subprogram ]
!302 = metadata !{i32 786453, i32 0, metadata !"", i32 0, i32 0, i64 0, i64 0, i64 0, i32 0, null, metadata !303, i32 0, i32 0} ; [ DW_TAG_subroutine_type ]
!303 = metadata !{metadata !194, metadata !270}
!304 = metadata !{i32 786478, i32 0, metadata !115, metadata !"to_double", metadata !"to_double", metadata !"_ZNK11ap_int_baseILi16ELb0ELb1EE9to_doubleEv", metadata !116, i32 1670, metadata !305, i1 false, i1 false, i32 0, i32 0, null, i32 256, i1 false, null, null, i32 0, metadata !128, i32 1670} ; [ DW_TAG_subprogram ]
!305 = metadata !{i32 786453, i32 0, metadata !"", i32 0, i32 0, i64 0, i64 0, i64 0, i32 0, null, metadata !306, i32 0, i32 0} ; [ DW_TAG_subroutine_type ]
!306 = metadata !{metadata !203, metadata !270}
!307 = metadata !{i32 786478, i32 0, metadata !115, metadata !"length", metadata !"length", metadata !"_ZNK11ap_int_baseILi16ELb0ELb1EE6lengthEv", metadata !116, i32 1684, metadata !287, i1 false, i1 false, i32 0, i32 0, null, i32 256, i1 false, null, null, i32 0, metadata !128, i32 1684} ; [ DW_TAG_subprogram ]
!308 = metadata !{i32 786478, i32 0, metadata !115, metadata !"length", metadata !"length", metadata !"_ZNVK11ap_int_baseILi16ELb0ELb1EE6lengthEv", metadata !116, i32 1685, metadata !309, i1 false, i1 false, i32 0, i32 0, null, i32 256, i1 false, null, null, i32 0, metadata !128, i32 1685} ; [ DW_TAG_subprogram ]
!309 = metadata !{i32 786453, i32 0, metadata !"", i32 0, i32 0, i64 0, i64 0, i64 0, i32 0, null, metadata !310, i32 0, i32 0} ; [ DW_TAG_subroutine_type ]
!310 = metadata !{metadata !132, metadata !311}
!311 = metadata !{i32 786447, i32 0, metadata !"", i32 0, i32 0, i64 32, i64 32, i64 0, i32 64, metadata !150} ; [ DW_TAG_pointer_type ]
!312 = metadata !{i32 786478, i32 0, metadata !115, metadata !"reverse", metadata !"reverse", metadata !"_ZN11ap_int_baseILi16ELb0ELb1EE7reverseEv", metadata !116, i32 1690, metadata !313, i1 false, i1 false, i32 0, i32 0, null, i32 256, i1 false, null, null, i32 0, metadata !128, i32 1690} ; [ DW_TAG_subprogram ]
!313 = metadata !{i32 786453, i32 0, metadata !"", i32 0, i32 0, i64 0, i64 0, i64 0, i32 0, null, metadata !314, i32 0, i32 0} ; [ DW_TAG_subroutine_type ]
!314 = metadata !{metadata !227, metadata !137}
!315 = metadata !{i32 786478, i32 0, metadata !115, metadata !"iszero", metadata !"iszero", metadata !"_ZNK11ap_int_baseILi16ELb0ELb1EE6iszeroEv", metadata !116, i32 1696, metadata !272, i1 false, i1 false, i32 0, i32 0, null, i32 256, i1 false, null, null, i32 0, metadata !128, i32 1696} ; [ DW_TAG_subprogram ]
!316 = metadata !{i32 786478, i32 0, metadata !115, metadata !"is_zero", metadata !"is_zero", metadata !"_ZNK11ap_int_baseILi16ELb0ELb1EE7is_zeroEv", metadata !116, i32 1701, metadata !272, i1 false, i1 false, i32 0, i32 0, null, i32 256, i1 false, null, null, i32 0, metadata !128, i32 1701} ; [ DW_TAG_subprogram ]
!317 = metadata !{i32 786478, i32 0, metadata !115, metadata !"sign", metadata !"sign", metadata !"_ZNK11ap_int_baseILi16ELb0ELb1EE4signEv", metadata !116, i32 1706, metadata !272, i1 false, i1 false, i32 0, i32 0, null, i32 256, i1 false, null, null, i32 0, metadata !128, i32 1706} ; [ DW_TAG_subprogram ]
!318 = metadata !{i32 786478, i32 0, metadata !115, metadata !"clear", metadata !"clear", metadata !"_ZN11ap_int_baseILi16ELb0ELb1EE5clearEi", metadata !116, i32 1714, metadata !172, i1 false, i1 false, i32 0, i32 0, null, i32 256, i1 false, null, null, i32 0, metadata !128, i32 1714} ; [ DW_TAG_subprogram ]
!319 = metadata !{i32 786478, i32 0, metadata !115, metadata !"invert", metadata !"invert", metadata !"_ZN11ap_int_baseILi16ELb0ELb1EE6invertEi", metadata !116, i32 1720, metadata !172, i1 false, i1 false, i32 0, i32 0, null, i32 256, i1 false, null, null, i32 0, metadata !128, i32 1720} ; [ DW_TAG_subprogram ]
!320 = metadata !{i32 786478, i32 0, metadata !115, metadata !"test", metadata !"test", metadata !"_ZNK11ap_int_baseILi16ELb0ELb1EE4testEi", metadata !116, i32 1728, metadata !321, i1 false, i1 false, i32 0, i32 0, null, i32 256, i1 false, null, null, i32 0, metadata !128, i32 1728} ; [ DW_TAG_subprogram ]
!321 = metadata !{i32 786453, i32 0, metadata !"", i32 0, i32 0, i64 0, i64 0, i64 0, i32 0, null, metadata !322, i32 0, i32 0} ; [ DW_TAG_subroutine_type ]
!322 = metadata !{metadata !108, metadata !270, metadata !132}
!323 = metadata !{i32 786478, i32 0, metadata !115, metadata !"set", metadata !"set", metadata !"_ZN11ap_int_baseILi16ELb0ELb1EE3setEi", metadata !116, i32 1734, metadata !172, i1 false, i1 false, i32 0, i32 0, null, i32 256, i1 false, null, null, i32 0, metadata !128, i32 1734} ; [ DW_TAG_subprogram ]
!324 = metadata !{i32 786478, i32 0, metadata !115, metadata !"set", metadata !"set", metadata !"_ZN11ap_int_baseILi16ELb0ELb1EE3setEib", metadata !116, i32 1740, metadata !325, i1 false, i1 false, i32 0, i32 0, null, i32 256, i1 false, null, null, i32 0, metadata !128, i32 1740} ; [ DW_TAG_subprogram ]
!325 = metadata !{i32 786453, i32 0, metadata !"", i32 0, i32 0, i64 0, i64 0, i64 0, i32 0, null, metadata !326, i32 0, i32 0} ; [ DW_TAG_subroutine_type ]
!326 = metadata !{null, metadata !137, metadata !132, metadata !108}
!327 = metadata !{i32 786478, i32 0, metadata !115, metadata !"lrotate", metadata !"lrotate", metadata !"_ZN11ap_int_baseILi16ELb0ELb1EE7lrotateEi", metadata !116, i32 1747, metadata !172, i1 false, i1 false, i32 0, i32 0, null, i32 256, i1 false, null, null, i32 0, metadata !128, i32 1747} ; [ DW_TAG_subprogram ]
!328 = metadata !{i32 786478, i32 0, metadata !115, metadata !"rrotate", metadata !"rrotate", metadata !"_ZN11ap_int_baseILi16ELb0ELb1EE7rrotateEi", metadata !116, i32 1756, metadata !172, i1 false, i1 false, i32 0, i32 0, null, i32 256, i1 false, null, null, i32 0, metadata !128, i32 1756} ; [ DW_TAG_subprogram ]
!329 = metadata !{i32 786478, i32 0, metadata !115, metadata !"set_bit", metadata !"set_bit", metadata !"_ZN11ap_int_baseILi16ELb0ELb1EE7set_bitEib", metadata !116, i32 1764, metadata !325, i1 false, i1 false, i32 0, i32 0, null, i32 256, i1 false, null, null, i32 0, metadata !128, i32 1764} ; [ DW_TAG_subprogram ]
!330 = metadata !{i32 786478, i32 0, metadata !115, metadata !"get_bit", metadata !"get_bit", metadata !"_ZNK11ap_int_baseILi16ELb0ELb1EE7get_bitEi", metadata !116, i32 1769, metadata !321, i1 false, i1 false, i32 0, i32 0, null, i32 256, i1 false, null, null, i32 0, metadata !128, i32 1769} ; [ DW_TAG_subprogram ]
!331 = metadata !{i32 786478, i32 0, metadata !115, metadata !"b_not", metadata !"b_not", metadata !"_ZN11ap_int_baseILi16ELb0ELb1EE5b_notEv", metadata !116, i32 1774, metadata !135, i1 false, i1 false, i32 0, i32 0, null, i32 256, i1 false, null, null, i32 0, metadata !128, i32 1774} ; [ DW_TAG_subprogram ]
!332 = metadata !{i32 786478, i32 0, metadata !115, metadata !"countLeadingZeros", metadata !"countLeadingZeros", metadata !"_ZN11ap_int_baseILi16ELb0ELb1EE17countLeadingZerosEv", metadata !116, i32 1781, metadata !333, i1 false, i1 false, i32 0, i32 0, null, i32 256, i1 false, null, null, i32 0, metadata !128, i32 1781} ; [ DW_TAG_subprogram ]
!333 = metadata !{i32 786453, i32 0, metadata !"", i32 0, i32 0, i64 0, i64 0, i64 0, i32 0, null, metadata !334, i32 0, i32 0} ; [ DW_TAG_subroutine_type ]
!334 = metadata !{metadata !132, metadata !137}
!335 = metadata !{i32 786478, i32 0, metadata !115, metadata !"operator++", metadata !"operator++", metadata !"_ZN11ap_int_baseILi16ELb0ELb1EEppEv", metadata !116, i32 1838, metadata !313, i1 false, i1 false, i32 0, i32 0, null, i32 256, i1 false, null, null, i32 0, metadata !128, i32 1838} ; [ DW_TAG_subprogram ]
!336 = metadata !{i32 786478, i32 0, metadata !115, metadata !"operator--", metadata !"operator--", metadata !"_ZN11ap_int_baseILi16ELb0ELb1EEmmEv", metadata !116, i32 1842, metadata !313, i1 false, i1 false, i32 0, i32 0, null, i32 256, i1 false, null, null, i32 0, metadata !128, i32 1842} ; [ DW_TAG_subprogram ]
!337 = metadata !{i32 786478, i32 0, metadata !115, metadata !"operator++", metadata !"operator++", metadata !"_ZN11ap_int_baseILi16ELb0ELb1EEppEi", metadata !116, i32 1850, metadata !338, i1 false, i1 false, i32 0, i32 0, null, i32 256, i1 false, null, null, i32 0, metadata !128, i32 1850} ; [ DW_TAG_subprogram ]
!338 = metadata !{i32 786453, i32 0, metadata !"", i32 0, i32 0, i64 0, i64 0, i64 0, i32 0, null, metadata !339, i32 0, i32 0} ; [ DW_TAG_subroutine_type ]
!339 = metadata !{metadata !142, metadata !137, metadata !132}
!340 = metadata !{i32 786478, i32 0, metadata !115, metadata !"operator--", metadata !"operator--", metadata !"_ZN11ap_int_baseILi16ELb0ELb1EEmmEi", metadata !116, i32 1855, metadata !338, i1 false, i1 false, i32 0, i32 0, null, i32 256, i1 false, null, null, i32 0, metadata !128, i32 1855} ; [ DW_TAG_subprogram ]
!341 = metadata !{i32 786478, i32 0, metadata !115, metadata !"operator+", metadata !"operator+", metadata !"_ZNK11ap_int_baseILi16ELb0ELb1EEpsEv", metadata !116, i32 1864, metadata !342, i1 false, i1 false, i32 0, i32 0, null, i32 256, i1 false, null, null, i32 0, metadata !128, i32 1864} ; [ DW_TAG_subprogram ]
!342 = metadata !{i32 786453, i32 0, metadata !"", i32 0, i32 0, i64 0, i64 0, i64 0, i32 0, null, metadata !343, i32 0, i32 0} ; [ DW_TAG_subroutine_type ]
!343 = metadata !{metadata !115, metadata !270}
!344 = metadata !{i32 786478, i32 0, metadata !115, metadata !"operator!", metadata !"operator!", metadata !"_ZNK11ap_int_baseILi16ELb0ELb1EEntEv", metadata !116, i32 1870, metadata !272, i1 false, i1 false, i32 0, i32 0, null, i32 256, i1 false, null, null, i32 0, metadata !128, i32 1870} ; [ DW_TAG_subprogram ]
!345 = metadata !{i32 786478, i32 0, metadata !115, metadata !"operator-", metadata !"operator-", metadata !"_ZNK11ap_int_baseILi16ELb0ELb1EEngEv", metadata !116, i32 1875, metadata !346, i1 false, i1 false, i32 0, i32 0, null, i32 256, i1 false, null, null, i32 0, metadata !128, i32 1875} ; [ DW_TAG_subprogram ]
!346 = metadata !{i32 786453, i32 0, metadata !"", i32 0, i32 0, i64 0, i64 0, i64 0, i32 0, null, metadata !347, i32 0, i32 0} ; [ DW_TAG_subroutine_type ]
!347 = metadata !{metadata !348, metadata !270}
!348 = metadata !{i32 786434, null, metadata !"ap_int_base<17, true, true>", metadata !116, i32 1397, i64 32, i64 32, i32 0, i32 0, null, metadata !349, i32 0, null, metadata !632} ; [ DW_TAG_class_type ]
!349 = metadata !{metadata !350, metadata !362, metadata !366, metadata !369, metadata !372, metadata !375, metadata !378, metadata !381, metadata !384, metadata !387, metadata !390, metadata !393, metadata !396, metadata !399, metadata !402, metadata !405, metadata !408, metadata !411, metadata !416, metadata !421, metadata !426, metadata !427, metadata !431, metadata !434, metadata !437, metadata !440, metadata !443, metadata !446, metadata !449, metadata !452, metadata !455, metadata !458, metadata !461, metadata !464, metadata !473, metadata !476, metadata !479, metadata !482, metadata !485, metadata !488, metadata !491, metadata !494, metadata !497, metadata !500, metadata !503, metadata !506, metadata !509, metadata !510, metadata !514, metadata !517, metadata !518, metadata !519, metadata !520, metadata !521, metadata !522, metadata !525, metadata !526, metadata !529, metadata !530, metadata !531, metadata !532, metadata !533, metadata !534, metadata !537, metadata !538, metadata !539, metadata !542, metadata !543, metadata !546, metadata !547, metadata !551, metadata !555, metadata !556, metadata !559, metadata !560, metadata !599, metadata !600, metadata !601, metadata !602, metadata !605, metadata !606, metadata !607, metadata !608, metadata !609, metadata !610, metadata !611, metadata !612, metadata !613, metadata !614, metadata !615, metadata !616, metadata !626, metadata !629}
!350 = metadata !{i32 786460, metadata !348, null, metadata !116, i32 0, i64 0, i64 0, i64 0, i32 0, metadata !351} ; [ DW_TAG_inheritance ]
!351 = metadata !{i32 786434, null, metadata !"ssdm_int<17 + 1024 * 0, true>", metadata !120, i32 19, i64 32, i64 32, i32 0, i32 0, null, metadata !352, i32 0, null, metadata !359} ; [ DW_TAG_class_type ]
!352 = metadata !{metadata !353, metadata !355}
!353 = metadata !{i32 786445, metadata !351, metadata !"V", metadata !120, i32 19, i64 17, i64 32, i64 0, i32 0, metadata !354} ; [ DW_TAG_member ]
!354 = metadata !{i32 786468, null, metadata !"int17", null, i32 0, i64 17, i64 32, i64 0, i32 0, i32 5} ; [ DW_TAG_base_type ]
!355 = metadata !{i32 786478, i32 0, metadata !351, metadata !"ssdm_int", metadata !"ssdm_int", metadata !"", metadata !120, i32 19, metadata !356, i1 false, i1 false, i32 0, i32 0, null, i32 256, i1 false, null, null, i32 0, metadata !128, i32 19} ; [ DW_TAG_subprogram ]
!356 = metadata !{i32 786453, i32 0, metadata !"", i32 0, i32 0, i64 0, i64 0, i64 0, i32 0, null, metadata !357, i32 0, i32 0} ; [ DW_TAG_subroutine_type ]
!357 = metadata !{null, metadata !358}
!358 = metadata !{i32 786447, i32 0, metadata !"", i32 0, i32 0, i64 32, i64 32, i64 0, i32 64, metadata !351} ; [ DW_TAG_pointer_type ]
!359 = metadata !{metadata !360, metadata !361}
!360 = metadata !{i32 786480, null, metadata !"_AP_N", metadata !132, i64 17, null, i32 0, i32 0} ; [ DW_TAG_template_value_parameter ]
!361 = metadata !{i32 786480, null, metadata !"_AP_S", metadata !108, i64 1, null, i32 0, i32 0} ; [ DW_TAG_template_value_parameter ]
!362 = metadata !{i32 786478, i32 0, metadata !348, metadata !"ap_int_base", metadata !"ap_int_base", metadata !"", metadata !116, i32 1438, metadata !363, i1 false, i1 false, i32 0, i32 0, null, i32 256, i1 false, null, null, i32 0, metadata !128, i32 1438} ; [ DW_TAG_subprogram ]
!363 = metadata !{i32 786453, i32 0, metadata !"", i32 0, i32 0, i64 0, i64 0, i64 0, i32 0, null, metadata !364, i32 0, i32 0} ; [ DW_TAG_subroutine_type ]
!364 = metadata !{null, metadata !365}
!365 = metadata !{i32 786447, i32 0, metadata !"", i32 0, i32 0, i64 32, i64 32, i64 0, i32 64, metadata !348} ; [ DW_TAG_pointer_type ]
!366 = metadata !{i32 786478, i32 0, metadata !348, metadata !"ap_int_base", metadata !"ap_int_base", metadata !"", metadata !116, i32 1460, metadata !367, i1 false, i1 false, i32 0, i32 0, null, i32 384, i1 false, null, null, i32 0, metadata !128, i32 1460} ; [ DW_TAG_subprogram ]
!367 = metadata !{i32 786453, i32 0, metadata !"", i32 0, i32 0, i64 0, i64 0, i64 0, i32 0, null, metadata !368, i32 0, i32 0} ; [ DW_TAG_subroutine_type ]
!368 = metadata !{null, metadata !365, metadata !108}
!369 = metadata !{i32 786478, i32 0, metadata !348, metadata !"ap_int_base", metadata !"ap_int_base", metadata !"", metadata !116, i32 1461, metadata !370, i1 false, i1 false, i32 0, i32 0, null, i32 384, i1 false, null, null, i32 0, metadata !128, i32 1461} ; [ DW_TAG_subprogram ]
!370 = metadata !{i32 786453, i32 0, metadata !"", i32 0, i32 0, i64 0, i64 0, i64 0, i32 0, null, metadata !371, i32 0, i32 0} ; [ DW_TAG_subroutine_type ]
!371 = metadata !{null, metadata !365, metadata !158}
!372 = metadata !{i32 786478, i32 0, metadata !348, metadata !"ap_int_base", metadata !"ap_int_base", metadata !"", metadata !116, i32 1462, metadata !373, i1 false, i1 false, i32 0, i32 0, null, i32 384, i1 false, null, null, i32 0, metadata !128, i32 1462} ; [ DW_TAG_subprogram ]
!373 = metadata !{i32 786453, i32 0, metadata !"", i32 0, i32 0, i64 0, i64 0, i64 0, i32 0, null, metadata !374, i32 0, i32 0} ; [ DW_TAG_subroutine_type ]
!374 = metadata !{null, metadata !365, metadata !162}
!375 = metadata !{i32 786478, i32 0, metadata !348, metadata !"ap_int_base", metadata !"ap_int_base", metadata !"", metadata !116, i32 1463, metadata !376, i1 false, i1 false, i32 0, i32 0, null, i32 384, i1 false, null, null, i32 0, metadata !128, i32 1463} ; [ DW_TAG_subprogram ]
!376 = metadata !{i32 786453, i32 0, metadata !"", i32 0, i32 0, i64 0, i64 0, i64 0, i32 0, null, metadata !377, i32 0, i32 0} ; [ DW_TAG_subroutine_type ]
!377 = metadata !{null, metadata !365, metadata !166}
!378 = metadata !{i32 786478, i32 0, metadata !348, metadata !"ap_int_base", metadata !"ap_int_base", metadata !"", metadata !116, i32 1464, metadata !379, i1 false, i1 false, i32 0, i32 0, null, i32 384, i1 false, null, null, i32 0, metadata !128, i32 1464} ; [ DW_TAG_subprogram ]
!379 = metadata !{i32 786453, i32 0, metadata !"", i32 0, i32 0, i64 0, i64 0, i64 0, i32 0, null, metadata !380, i32 0, i32 0} ; [ DW_TAG_subroutine_type ]
!380 = metadata !{null, metadata !365, metadata !170}
!381 = metadata !{i32 786478, i32 0, metadata !348, metadata !"ap_int_base", metadata !"ap_int_base", metadata !"", metadata !116, i32 1465, metadata !382, i1 false, i1 false, i32 0, i32 0, null, i32 384, i1 false, null, null, i32 0, metadata !128, i32 1465} ; [ DW_TAG_subprogram ]
!382 = metadata !{i32 786453, i32 0, metadata !"", i32 0, i32 0, i64 0, i64 0, i64 0, i32 0, null, metadata !383, i32 0, i32 0} ; [ DW_TAG_subroutine_type ]
!383 = metadata !{null, metadata !365, metadata !132}
!384 = metadata !{i32 786478, i32 0, metadata !348, metadata !"ap_int_base", metadata !"ap_int_base", metadata !"", metadata !116, i32 1466, metadata !385, i1 false, i1 false, i32 0, i32 0, null, i32 384, i1 false, null, null, i32 0, metadata !128, i32 1466} ; [ DW_TAG_subprogram ]
!385 = metadata !{i32 786453, i32 0, metadata !"", i32 0, i32 0, i64 0, i64 0, i64 0, i32 0, null, metadata !386, i32 0, i32 0} ; [ DW_TAG_subroutine_type ]
!386 = metadata !{null, metadata !365, metadata !177}
!387 = metadata !{i32 786478, i32 0, metadata !348, metadata !"ap_int_base", metadata !"ap_int_base", metadata !"", metadata !116, i32 1467, metadata !388, i1 false, i1 false, i32 0, i32 0, null, i32 384, i1 false, null, null, i32 0, metadata !128, i32 1467} ; [ DW_TAG_subprogram ]
!388 = metadata !{i32 786453, i32 0, metadata !"", i32 0, i32 0, i64 0, i64 0, i64 0, i32 0, null, metadata !389, i32 0, i32 0} ; [ DW_TAG_subroutine_type ]
!389 = metadata !{null, metadata !365, metadata !181}
!390 = metadata !{i32 786478, i32 0, metadata !348, metadata !"ap_int_base", metadata !"ap_int_base", metadata !"", metadata !116, i32 1468, metadata !391, i1 false, i1 false, i32 0, i32 0, null, i32 384, i1 false, null, null, i32 0, metadata !128, i32 1468} ; [ DW_TAG_subprogram ]
!391 = metadata !{i32 786453, i32 0, metadata !"", i32 0, i32 0, i64 0, i64 0, i64 0, i32 0, null, metadata !392, i32 0, i32 0} ; [ DW_TAG_subroutine_type ]
!392 = metadata !{null, metadata !365, metadata !185}
!393 = metadata !{i32 786478, i32 0, metadata !348, metadata !"ap_int_base", metadata !"ap_int_base", metadata !"", metadata !116, i32 1469, metadata !394, i1 false, i1 false, i32 0, i32 0, null, i32 384, i1 false, null, null, i32 0, metadata !128, i32 1469} ; [ DW_TAG_subprogram ]
!394 = metadata !{i32 786453, i32 0, metadata !"", i32 0, i32 0, i64 0, i64 0, i64 0, i32 0, null, metadata !395, i32 0, i32 0} ; [ DW_TAG_subroutine_type ]
!395 = metadata !{null, metadata !365, metadata !189}
!396 = metadata !{i32 786478, i32 0, metadata !348, metadata !"ap_int_base", metadata !"ap_int_base", metadata !"", metadata !116, i32 1470, metadata !397, i1 false, i1 false, i32 0, i32 0, null, i32 384, i1 false, null, null, i32 0, metadata !128, i32 1470} ; [ DW_TAG_subprogram ]
!397 = metadata !{i32 786453, i32 0, metadata !"", i32 0, i32 0, i64 0, i64 0, i64 0, i32 0, null, metadata !398, i32 0, i32 0} ; [ DW_TAG_subroutine_type ]
!398 = metadata !{null, metadata !365, metadata !194}
!399 = metadata !{i32 786478, i32 0, metadata !348, metadata !"ap_int_base", metadata !"ap_int_base", metadata !"", metadata !116, i32 1471, metadata !400, i1 false, i1 false, i32 0, i32 0, null, i32 384, i1 false, null, null, i32 0, metadata !128, i32 1471} ; [ DW_TAG_subprogram ]
!400 = metadata !{i32 786453, i32 0, metadata !"", i32 0, i32 0, i64 0, i64 0, i64 0, i32 0, null, metadata !401, i32 0, i32 0} ; [ DW_TAG_subroutine_type ]
!401 = metadata !{null, metadata !365, metadata !199}
!402 = metadata !{i32 786478, i32 0, metadata !348, metadata !"ap_int_base", metadata !"ap_int_base", metadata !"", metadata !116, i32 1472, metadata !403, i1 false, i1 false, i32 0, i32 0, null, i32 384, i1 false, null, null, i32 0, metadata !128, i32 1472} ; [ DW_TAG_subprogram ]
!403 = metadata !{i32 786453, i32 0, metadata !"", i32 0, i32 0, i64 0, i64 0, i64 0, i32 0, null, metadata !404, i32 0, i32 0} ; [ DW_TAG_subroutine_type ]
!404 = metadata !{null, metadata !365, metadata !203}
!405 = metadata !{i32 786478, i32 0, metadata !348, metadata !"ap_int_base", metadata !"ap_int_base", metadata !"", metadata !116, i32 1499, metadata !406, i1 false, i1 false, i32 0, i32 0, null, i32 256, i1 false, null, null, i32 0, metadata !128, i32 1499} ; [ DW_TAG_subprogram ]
!406 = metadata !{i32 786453, i32 0, metadata !"", i32 0, i32 0, i64 0, i64 0, i64 0, i32 0, null, metadata !407, i32 0, i32 0} ; [ DW_TAG_subroutine_type ]
!407 = metadata !{null, metadata !365, metadata !207}
!408 = metadata !{i32 786478, i32 0, metadata !348, metadata !"ap_int_base", metadata !"ap_int_base", metadata !"", metadata !116, i32 1506, metadata !409, i1 false, i1 false, i32 0, i32 0, null, i32 256, i1 false, null, null, i32 0, metadata !128, i32 1506} ; [ DW_TAG_subprogram ]
!409 = metadata !{i32 786453, i32 0, metadata !"", i32 0, i32 0, i64 0, i64 0, i64 0, i32 0, null, metadata !410, i32 0, i32 0} ; [ DW_TAG_subroutine_type ]
!410 = metadata !{null, metadata !365, metadata !207, metadata !158}
!411 = metadata !{i32 786478, i32 0, metadata !348, metadata !"read", metadata !"read", metadata !"_ZNV11ap_int_baseILi17ELb1ELb1EE4readEv", metadata !116, i32 1527, metadata !412, i1 false, i1 false, i32 0, i32 0, null, i32 256, i1 false, null, null, i32 0, metadata !128, i32 1527} ; [ DW_TAG_subprogram ]
!412 = metadata !{i32 786453, i32 0, metadata !"", i32 0, i32 0, i64 0, i64 0, i64 0, i32 0, null, metadata !413, i32 0, i32 0} ; [ DW_TAG_subroutine_type ]
!413 = metadata !{metadata !348, metadata !414}
!414 = metadata !{i32 786447, i32 0, metadata !"", i32 0, i32 0, i64 32, i64 32, i64 0, i32 64, metadata !415} ; [ DW_TAG_pointer_type ]
!415 = metadata !{i32 786485, null, metadata !"", null, i32 0, i64 0, i64 0, i64 0, i32 0, metadata !348} ; [ DW_TAG_volatile_type ]
!416 = metadata !{i32 786478, i32 0, metadata !348, metadata !"write", metadata !"write", metadata !"_ZNV11ap_int_baseILi17ELb1ELb1EE5writeERKS0_", metadata !116, i32 1533, metadata !417, i1 false, i1 false, i32 0, i32 0, null, i32 256, i1 false, null, null, i32 0, metadata !128, i32 1533} ; [ DW_TAG_subprogram ]
!417 = metadata !{i32 786453, i32 0, metadata !"", i32 0, i32 0, i64 0, i64 0, i64 0, i32 0, null, metadata !418, i32 0, i32 0} ; [ DW_TAG_subroutine_type ]
!418 = metadata !{null, metadata !414, metadata !419}
!419 = metadata !{i32 786448, null, null, null, i32 0, i64 0, i64 0, i64 0, i32 0, metadata !420} ; [ DW_TAG_reference_type ]
!420 = metadata !{i32 786470, null, metadata !"", null, i32 0, i64 0, i64 0, i64 0, i32 0, metadata !348} ; [ DW_TAG_const_type ]
!421 = metadata !{i32 786478, i32 0, metadata !348, metadata !"operator=", metadata !"operator=", metadata !"_ZNV11ap_int_baseILi17ELb1ELb1EEaSERVKS0_", metadata !116, i32 1545, metadata !422, i1 false, i1 false, i32 0, i32 0, null, i32 256, i1 false, null, null, i32 0, metadata !128, i32 1545} ; [ DW_TAG_subprogram ]
!422 = metadata !{i32 786453, i32 0, metadata !"", i32 0, i32 0, i64 0, i64 0, i64 0, i32 0, null, metadata !423, i32 0, i32 0} ; [ DW_TAG_subroutine_type ]
!423 = metadata !{null, metadata !414, metadata !424}
!424 = metadata !{i32 786448, null, null, null, i32 0, i64 0, i64 0, i64 0, i32 0, metadata !425} ; [ DW_TAG_reference_type ]
!425 = metadata !{i32 786470, null, metadata !"", null, i32 0, i64 0, i64 0, i64 0, i32 0, metadata !415} ; [ DW_TAG_const_type ]
!426 = metadata !{i32 786478, i32 0, metadata !348, metadata !"operator=", metadata !"operator=", metadata !"_ZNV11ap_int_baseILi17ELb1ELb1EEaSERKS0_", metadata !116, i32 1554, metadata !417, i1 false, i1 false, i32 0, i32 0, null, i32 256, i1 false, null, null, i32 0, metadata !128, i32 1554} ; [ DW_TAG_subprogram ]
!427 = metadata !{i32 786478, i32 0, metadata !348, metadata !"operator=", metadata !"operator=", metadata !"_ZN11ap_int_baseILi17ELb1ELb1EEaSERVKS0_", metadata !116, i32 1577, metadata !428, i1 false, i1 false, i32 0, i32 0, null, i32 256, i1 false, null, null, i32 0, metadata !128, i32 1577} ; [ DW_TAG_subprogram ]
!428 = metadata !{i32 786453, i32 0, metadata !"", i32 0, i32 0, i64 0, i64 0, i64 0, i32 0, null, metadata !429, i32 0, i32 0} ; [ DW_TAG_subroutine_type ]
!429 = metadata !{metadata !430, metadata !365, metadata !424}
!430 = metadata !{i32 786448, null, null, null, i32 0, i64 0, i64 0, i64 0, i32 0, metadata !348} ; [ DW_TAG_reference_type ]
!431 = metadata !{i32 786478, i32 0, metadata !348, metadata !"operator=", metadata !"operator=", metadata !"_ZN11ap_int_baseILi17ELb1ELb1EEaSERKS0_", metadata !116, i32 1582, metadata !432, i1 false, i1 false, i32 0, i32 0, null, i32 256, i1 false, null, null, i32 0, metadata !128, i32 1582} ; [ DW_TAG_subprogram ]
!432 = metadata !{i32 786453, i32 0, metadata !"", i32 0, i32 0, i64 0, i64 0, i64 0, i32 0, null, metadata !433, i32 0, i32 0} ; [ DW_TAG_subroutine_type ]
!433 = metadata !{metadata !430, metadata !365, metadata !419}
!434 = metadata !{i32 786478, i32 0, metadata !348, metadata !"operator=", metadata !"operator=", metadata !"_ZN11ap_int_baseILi17ELb1ELb1EEaSEPKc", metadata !116, i32 1586, metadata !435, i1 false, i1 false, i32 0, i32 0, null, i32 256, i1 false, null, null, i32 0, metadata !128, i32 1586} ; [ DW_TAG_subprogram ]
!435 = metadata !{i32 786453, i32 0, metadata !"", i32 0, i32 0, i64 0, i64 0, i64 0, i32 0, null, metadata !436, i32 0, i32 0} ; [ DW_TAG_subroutine_type ]
!436 = metadata !{metadata !430, metadata !365, metadata !207}
!437 = metadata !{i32 786478, i32 0, metadata !348, metadata !"set", metadata !"set", metadata !"_ZN11ap_int_baseILi17ELb1ELb1EE3setEPKca", metadata !116, i32 1594, metadata !438, i1 false, i1 false, i32 0, i32 0, null, i32 256, i1 false, null, null, i32 0, metadata !128, i32 1594} ; [ DW_TAG_subprogram ]
!438 = metadata !{i32 786453, i32 0, metadata !"", i32 0, i32 0, i64 0, i64 0, i64 0, i32 0, null, metadata !439, i32 0, i32 0} ; [ DW_TAG_subroutine_type ]
!439 = metadata !{metadata !430, metadata !365, metadata !207, metadata !158}
!440 = metadata !{i32 786478, i32 0, metadata !348, metadata !"operator=", metadata !"operator=", metadata !"_ZN11ap_int_baseILi17ELb1ELb1EEaSEa", metadata !116, i32 1608, metadata !441, i1 false, i1 false, i32 0, i32 0, null, i32 256, i1 false, null, null, i32 0, metadata !128, i32 1608} ; [ DW_TAG_subprogram ]
!441 = metadata !{i32 786453, i32 0, metadata !"", i32 0, i32 0, i64 0, i64 0, i64 0, i32 0, null, metadata !442, i32 0, i32 0} ; [ DW_TAG_subroutine_type ]
!442 = metadata !{metadata !430, metadata !365, metadata !158}
!443 = metadata !{i32 786478, i32 0, metadata !348, metadata !"operator=", metadata !"operator=", metadata !"_ZN11ap_int_baseILi17ELb1ELb1EEaSEh", metadata !116, i32 1609, metadata !444, i1 false, i1 false, i32 0, i32 0, null, i32 256, i1 false, null, null, i32 0, metadata !128, i32 1609} ; [ DW_TAG_subprogram ]
!444 = metadata !{i32 786453, i32 0, metadata !"", i32 0, i32 0, i64 0, i64 0, i64 0, i32 0, null, metadata !445, i32 0, i32 0} ; [ DW_TAG_subroutine_type ]
!445 = metadata !{metadata !430, metadata !365, metadata !162}
!446 = metadata !{i32 786478, i32 0, metadata !348, metadata !"operator=", metadata !"operator=", metadata !"_ZN11ap_int_baseILi17ELb1ELb1EEaSEs", metadata !116, i32 1610, metadata !447, i1 false, i1 false, i32 0, i32 0, null, i32 256, i1 false, null, null, i32 0, metadata !128, i32 1610} ; [ DW_TAG_subprogram ]
!447 = metadata !{i32 786453, i32 0, metadata !"", i32 0, i32 0, i64 0, i64 0, i64 0, i32 0, null, metadata !448, i32 0, i32 0} ; [ DW_TAG_subroutine_type ]
!448 = metadata !{metadata !430, metadata !365, metadata !166}
!449 = metadata !{i32 786478, i32 0, metadata !348, metadata !"operator=", metadata !"operator=", metadata !"_ZN11ap_int_baseILi17ELb1ELb1EEaSEt", metadata !116, i32 1611, metadata !450, i1 false, i1 false, i32 0, i32 0, null, i32 256, i1 false, null, null, i32 0, metadata !128, i32 1611} ; [ DW_TAG_subprogram ]
!450 = metadata !{i32 786453, i32 0, metadata !"", i32 0, i32 0, i64 0, i64 0, i64 0, i32 0, null, metadata !451, i32 0, i32 0} ; [ DW_TAG_subroutine_type ]
!451 = metadata !{metadata !430, metadata !365, metadata !170}
!452 = metadata !{i32 786478, i32 0, metadata !348, metadata !"operator=", metadata !"operator=", metadata !"_ZN11ap_int_baseILi17ELb1ELb1EEaSEi", metadata !116, i32 1612, metadata !453, i1 false, i1 false, i32 0, i32 0, null, i32 256, i1 false, null, null, i32 0, metadata !128, i32 1612} ; [ DW_TAG_subprogram ]
!453 = metadata !{i32 786453, i32 0, metadata !"", i32 0, i32 0, i64 0, i64 0, i64 0, i32 0, null, metadata !454, i32 0, i32 0} ; [ DW_TAG_subroutine_type ]
!454 = metadata !{metadata !430, metadata !365, metadata !132}
!455 = metadata !{i32 786478, i32 0, metadata !348, metadata !"operator=", metadata !"operator=", metadata !"_ZN11ap_int_baseILi17ELb1ELb1EEaSEj", metadata !116, i32 1613, metadata !456, i1 false, i1 false, i32 0, i32 0, null, i32 256, i1 false, null, null, i32 0, metadata !128, i32 1613} ; [ DW_TAG_subprogram ]
!456 = metadata !{i32 786453, i32 0, metadata !"", i32 0, i32 0, i64 0, i64 0, i64 0, i32 0, null, metadata !457, i32 0, i32 0} ; [ DW_TAG_subroutine_type ]
!457 = metadata !{metadata !430, metadata !365, metadata !177}
!458 = metadata !{i32 786478, i32 0, metadata !348, metadata !"operator=", metadata !"operator=", metadata !"_ZN11ap_int_baseILi17ELb1ELb1EEaSEx", metadata !116, i32 1614, metadata !459, i1 false, i1 false, i32 0, i32 0, null, i32 256, i1 false, null, null, i32 0, metadata !128, i32 1614} ; [ DW_TAG_subprogram ]
!459 = metadata !{i32 786453, i32 0, metadata !"", i32 0, i32 0, i64 0, i64 0, i64 0, i32 0, null, metadata !460, i32 0, i32 0} ; [ DW_TAG_subroutine_type ]
!460 = metadata !{metadata !430, metadata !365, metadata !189}
!461 = metadata !{i32 786478, i32 0, metadata !348, metadata !"operator=", metadata !"operator=", metadata !"_ZN11ap_int_baseILi17ELb1ELb1EEaSEy", metadata !116, i32 1615, metadata !462, i1 false, i1 false, i32 0, i32 0, null, i32 256, i1 false, null, null, i32 0, metadata !128, i32 1615} ; [ DW_TAG_subprogram ]
!462 = metadata !{i32 786453, i32 0, metadata !"", i32 0, i32 0, i64 0, i64 0, i64 0, i32 0, null, metadata !463, i32 0, i32 0} ; [ DW_TAG_subroutine_type ]
!463 = metadata !{metadata !430, metadata !365, metadata !194}
!464 = metadata !{i32 786478, i32 0, metadata !348, metadata !"operator int", metadata !"operator int", metadata !"_ZNK11ap_int_baseILi17ELb1ELb1EEcviEv", metadata !116, i32 1653, metadata !465, i1 false, i1 false, i32 0, i32 0, null, i32 256, i1 false, null, null, i32 0, metadata !128, i32 1653} ; [ DW_TAG_subprogram ]
!465 = metadata !{i32 786453, i32 0, metadata !"", i32 0, i32 0, i64 0, i64 0, i64 0, i32 0, null, metadata !466, i32 0, i32 0} ; [ DW_TAG_subroutine_type ]
!466 = metadata !{metadata !467, metadata !472}
!467 = metadata !{i32 786454, metadata !348, metadata !"RetType", metadata !116, i32 1402, i64 0, i64 0, i64 0, i32 0, metadata !468} ; [ DW_TAG_typedef ]
!468 = metadata !{i32 786454, metadata !469, metadata !"Type", metadata !116, i32 1379, i64 0, i64 0, i64 0, i32 0, metadata !132} ; [ DW_TAG_typedef ]
!469 = metadata !{i32 786434, null, metadata !"retval<3, true>", metadata !116, i32 1378, i64 8, i64 8, i32 0, i32 0, null, metadata !267, i32 0, null, metadata !470} ; [ DW_TAG_class_type ]
!470 = metadata !{metadata !471, metadata !361}
!471 = metadata !{i32 786480, null, metadata !"_AP_N", metadata !132, i64 3, null, i32 0, i32 0} ; [ DW_TAG_template_value_parameter ]
!472 = metadata !{i32 786447, i32 0, metadata !"", i32 0, i32 0, i64 32, i64 32, i64 0, i32 64, metadata !420} ; [ DW_TAG_pointer_type ]
!473 = metadata !{i32 786478, i32 0, metadata !348, metadata !"to_bool", metadata !"to_bool", metadata !"_ZNK11ap_int_baseILi17ELb1ELb1EE7to_boolEv", metadata !116, i32 1659, metadata !474, i1 false, i1 false, i32 0, i32 0, null, i32 256, i1 false, null, null, i32 0, metadata !128, i32 1659} ; [ DW_TAG_subprogram ]
!474 = metadata !{i32 786453, i32 0, metadata !"", i32 0, i32 0, i64 0, i64 0, i64 0, i32 0, null, metadata !475, i32 0, i32 0} ; [ DW_TAG_subroutine_type ]
!475 = metadata !{metadata !108, metadata !472}
!476 = metadata !{i32 786478, i32 0, metadata !348, metadata !"to_uchar", metadata !"to_uchar", metadata !"_ZNK11ap_int_baseILi17ELb1ELb1EE8to_ucharEv", metadata !116, i32 1660, metadata !477, i1 false, i1 false, i32 0, i32 0, null, i32 256, i1 false, null, null, i32 0, metadata !128, i32 1660} ; [ DW_TAG_subprogram ]
!477 = metadata !{i32 786453, i32 0, metadata !"", i32 0, i32 0, i64 0, i64 0, i64 0, i32 0, null, metadata !478, i32 0, i32 0} ; [ DW_TAG_subroutine_type ]
!478 = metadata !{metadata !162, metadata !472}
!479 = metadata !{i32 786478, i32 0, metadata !348, metadata !"to_char", metadata !"to_char", metadata !"_ZNK11ap_int_baseILi17ELb1ELb1EE7to_charEv", metadata !116, i32 1661, metadata !480, i1 false, i1 false, i32 0, i32 0, null, i32 256, i1 false, null, null, i32 0, metadata !128, i32 1661} ; [ DW_TAG_subprogram ]
!480 = metadata !{i32 786453, i32 0, metadata !"", i32 0, i32 0, i64 0, i64 0, i64 0, i32 0, null, metadata !481, i32 0, i32 0} ; [ DW_TAG_subroutine_type ]
!481 = metadata !{metadata !158, metadata !472}
!482 = metadata !{i32 786478, i32 0, metadata !348, metadata !"to_ushort", metadata !"to_ushort", metadata !"_ZNK11ap_int_baseILi17ELb1ELb1EE9to_ushortEv", metadata !116, i32 1662, metadata !483, i1 false, i1 false, i32 0, i32 0, null, i32 256, i1 false, null, null, i32 0, metadata !128, i32 1662} ; [ DW_TAG_subprogram ]
!483 = metadata !{i32 786453, i32 0, metadata !"", i32 0, i32 0, i64 0, i64 0, i64 0, i32 0, null, metadata !484, i32 0, i32 0} ; [ DW_TAG_subroutine_type ]
!484 = metadata !{metadata !170, metadata !472}
!485 = metadata !{i32 786478, i32 0, metadata !348, metadata !"to_short", metadata !"to_short", metadata !"_ZNK11ap_int_baseILi17ELb1ELb1EE8to_shortEv", metadata !116, i32 1663, metadata !486, i1 false, i1 false, i32 0, i32 0, null, i32 256, i1 false, null, null, i32 0, metadata !128, i32 1663} ; [ DW_TAG_subprogram ]
!486 = metadata !{i32 786453, i32 0, metadata !"", i32 0, i32 0, i64 0, i64 0, i64 0, i32 0, null, metadata !487, i32 0, i32 0} ; [ DW_TAG_subroutine_type ]
!487 = metadata !{metadata !166, metadata !472}
!488 = metadata !{i32 786478, i32 0, metadata !348, metadata !"to_int", metadata !"to_int", metadata !"_ZNK11ap_int_baseILi17ELb1ELb1EE6to_intEv", metadata !116, i32 1664, metadata !489, i1 false, i1 false, i32 0, i32 0, null, i32 256, i1 false, null, null, i32 0, metadata !128, i32 1664} ; [ DW_TAG_subprogram ]
!489 = metadata !{i32 786453, i32 0, metadata !"", i32 0, i32 0, i64 0, i64 0, i64 0, i32 0, null, metadata !490, i32 0, i32 0} ; [ DW_TAG_subroutine_type ]
!490 = metadata !{metadata !132, metadata !472}
!491 = metadata !{i32 786478, i32 0, metadata !348, metadata !"to_uint", metadata !"to_uint", metadata !"_ZNK11ap_int_baseILi17ELb1ELb1EE7to_uintEv", metadata !116, i32 1665, metadata !492, i1 false, i1 false, i32 0, i32 0, null, i32 256, i1 false, null, null, i32 0, metadata !128, i32 1665} ; [ DW_TAG_subprogram ]
!492 = metadata !{i32 786453, i32 0, metadata !"", i32 0, i32 0, i64 0, i64 0, i64 0, i32 0, null, metadata !493, i32 0, i32 0} ; [ DW_TAG_subroutine_type ]
!493 = metadata !{metadata !177, metadata !472}
!494 = metadata !{i32 786478, i32 0, metadata !348, metadata !"to_long", metadata !"to_long", metadata !"_ZNK11ap_int_baseILi17ELb1ELb1EE7to_longEv", metadata !116, i32 1666, metadata !495, i1 false, i1 false, i32 0, i32 0, null, i32 256, i1 false, null, null, i32 0, metadata !128, i32 1666} ; [ DW_TAG_subprogram ]
!495 = metadata !{i32 786453, i32 0, metadata !"", i32 0, i32 0, i64 0, i64 0, i64 0, i32 0, null, metadata !496, i32 0, i32 0} ; [ DW_TAG_subroutine_type ]
!496 = metadata !{metadata !181, metadata !472}
!497 = metadata !{i32 786478, i32 0, metadata !348, metadata !"to_ulong", metadata !"to_ulong", metadata !"_ZNK11ap_int_baseILi17ELb1ELb1EE8to_ulongEv", metadata !116, i32 1667, metadata !498, i1 false, i1 false, i32 0, i32 0, null, i32 256, i1 false, null, null, i32 0, metadata !128, i32 1667} ; [ DW_TAG_subprogram ]
!498 = metadata !{i32 786453, i32 0, metadata !"", i32 0, i32 0, i64 0, i64 0, i64 0, i32 0, null, metadata !499, i32 0, i32 0} ; [ DW_TAG_subroutine_type ]
!499 = metadata !{metadata !185, metadata !472}
!500 = metadata !{i32 786478, i32 0, metadata !348, metadata !"to_int64", metadata !"to_int64", metadata !"_ZNK11ap_int_baseILi17ELb1ELb1EE8to_int64Ev", metadata !116, i32 1668, metadata !501, i1 false, i1 false, i32 0, i32 0, null, i32 256, i1 false, null, null, i32 0, metadata !128, i32 1668} ; [ DW_TAG_subprogram ]
!501 = metadata !{i32 786453, i32 0, metadata !"", i32 0, i32 0, i64 0, i64 0, i64 0, i32 0, null, metadata !502, i32 0, i32 0} ; [ DW_TAG_subroutine_type ]
!502 = metadata !{metadata !189, metadata !472}
!503 = metadata !{i32 786478, i32 0, metadata !348, metadata !"to_uint64", metadata !"to_uint64", metadata !"_ZNK11ap_int_baseILi17ELb1ELb1EE9to_uint64Ev", metadata !116, i32 1669, metadata !504, i1 false, i1 false, i32 0, i32 0, null, i32 256, i1 false, null, null, i32 0, metadata !128, i32 1669} ; [ DW_TAG_subprogram ]
!504 = metadata !{i32 786453, i32 0, metadata !"", i32 0, i32 0, i64 0, i64 0, i64 0, i32 0, null, metadata !505, i32 0, i32 0} ; [ DW_TAG_subroutine_type ]
!505 = metadata !{metadata !194, metadata !472}
!506 = metadata !{i32 786478, i32 0, metadata !348, metadata !"to_double", metadata !"to_double", metadata !"_ZNK11ap_int_baseILi17ELb1ELb1EE9to_doubleEv", metadata !116, i32 1670, metadata !507, i1 false, i1 false, i32 0, i32 0, null, i32 256, i1 false, null, null, i32 0, metadata !128, i32 1670} ; [ DW_TAG_subprogram ]
!507 = metadata !{i32 786453, i32 0, metadata !"", i32 0, i32 0, i64 0, i64 0, i64 0, i32 0, null, metadata !508, i32 0, i32 0} ; [ DW_TAG_subroutine_type ]
!508 = metadata !{metadata !203, metadata !472}
!509 = metadata !{i32 786478, i32 0, metadata !348, metadata !"length", metadata !"length", metadata !"_ZNK11ap_int_baseILi17ELb1ELb1EE6lengthEv", metadata !116, i32 1684, metadata !489, i1 false, i1 false, i32 0, i32 0, null, i32 256, i1 false, null, null, i32 0, metadata !128, i32 1684} ; [ DW_TAG_subprogram ]
!510 = metadata !{i32 786478, i32 0, metadata !348, metadata !"length", metadata !"length", metadata !"_ZNVK11ap_int_baseILi17ELb1ELb1EE6lengthEv", metadata !116, i32 1685, metadata !511, i1 false, i1 false, i32 0, i32 0, null, i32 256, i1 false, null, null, i32 0, metadata !128, i32 1685} ; [ DW_TAG_subprogram ]
!511 = metadata !{i32 786453, i32 0, metadata !"", i32 0, i32 0, i64 0, i64 0, i64 0, i32 0, null, metadata !512, i32 0, i32 0} ; [ DW_TAG_subroutine_type ]
!512 = metadata !{metadata !132, metadata !513}
!513 = metadata !{i32 786447, i32 0, metadata !"", i32 0, i32 0, i64 32, i64 32, i64 0, i32 64, metadata !425} ; [ DW_TAG_pointer_type ]
!514 = metadata !{i32 786478, i32 0, metadata !348, metadata !"reverse", metadata !"reverse", metadata !"_ZN11ap_int_baseILi17ELb1ELb1EE7reverseEv", metadata !116, i32 1690, metadata !515, i1 false, i1 false, i32 0, i32 0, null, i32 256, i1 false, null, null, i32 0, metadata !128, i32 1690} ; [ DW_TAG_subprogram ]
!515 = metadata !{i32 786453, i32 0, metadata !"", i32 0, i32 0, i64 0, i64 0, i64 0, i32 0, null, metadata !516, i32 0, i32 0} ; [ DW_TAG_subroutine_type ]
!516 = metadata !{metadata !430, metadata !365}
!517 = metadata !{i32 786478, i32 0, metadata !348, metadata !"iszero", metadata !"iszero", metadata !"_ZNK11ap_int_baseILi17ELb1ELb1EE6iszeroEv", metadata !116, i32 1696, metadata !474, i1 false, i1 false, i32 0, i32 0, null, i32 256, i1 false, null, null, i32 0, metadata !128, i32 1696} ; [ DW_TAG_subprogram ]
!518 = metadata !{i32 786478, i32 0, metadata !348, metadata !"is_zero", metadata !"is_zero", metadata !"_ZNK11ap_int_baseILi17ELb1ELb1EE7is_zeroEv", metadata !116, i32 1701, metadata !474, i1 false, i1 false, i32 0, i32 0, null, i32 256, i1 false, null, null, i32 0, metadata !128, i32 1701} ; [ DW_TAG_subprogram ]
!519 = metadata !{i32 786478, i32 0, metadata !348, metadata !"sign", metadata !"sign", metadata !"_ZNK11ap_int_baseILi17ELb1ELb1EE4signEv", metadata !116, i32 1706, metadata !474, i1 false, i1 false, i32 0, i32 0, null, i32 256, i1 false, null, null, i32 0, metadata !128, i32 1706} ; [ DW_TAG_subprogram ]
!520 = metadata !{i32 786478, i32 0, metadata !348, metadata !"clear", metadata !"clear", metadata !"_ZN11ap_int_baseILi17ELb1ELb1EE5clearEi", metadata !116, i32 1714, metadata !382, i1 false, i1 false, i32 0, i32 0, null, i32 256, i1 false, null, null, i32 0, metadata !128, i32 1714} ; [ DW_TAG_subprogram ]
!521 = metadata !{i32 786478, i32 0, metadata !348, metadata !"invert", metadata !"invert", metadata !"_ZN11ap_int_baseILi17ELb1ELb1EE6invertEi", metadata !116, i32 1720, metadata !382, i1 false, i1 false, i32 0, i32 0, null, i32 256, i1 false, null, null, i32 0, metadata !128, i32 1720} ; [ DW_TAG_subprogram ]
!522 = metadata !{i32 786478, i32 0, metadata !348, metadata !"test", metadata !"test", metadata !"_ZNK11ap_int_baseILi17ELb1ELb1EE4testEi", metadata !116, i32 1728, metadata !523, i1 false, i1 false, i32 0, i32 0, null, i32 256, i1 false, null, null, i32 0, metadata !128, i32 1728} ; [ DW_TAG_subprogram ]
!523 = metadata !{i32 786453, i32 0, metadata !"", i32 0, i32 0, i64 0, i64 0, i64 0, i32 0, null, metadata !524, i32 0, i32 0} ; [ DW_TAG_subroutine_type ]
!524 = metadata !{metadata !108, metadata !472, metadata !132}
!525 = metadata !{i32 786478, i32 0, metadata !348, metadata !"set", metadata !"set", metadata !"_ZN11ap_int_baseILi17ELb1ELb1EE3setEi", metadata !116, i32 1734, metadata !382, i1 false, i1 false, i32 0, i32 0, null, i32 256, i1 false, null, null, i32 0, metadata !128, i32 1734} ; [ DW_TAG_subprogram ]
!526 = metadata !{i32 786478, i32 0, metadata !348, metadata !"set", metadata !"set", metadata !"_ZN11ap_int_baseILi17ELb1ELb1EE3setEib", metadata !116, i32 1740, metadata !527, i1 false, i1 false, i32 0, i32 0, null, i32 256, i1 false, null, null, i32 0, metadata !128, i32 1740} ; [ DW_TAG_subprogram ]
!527 = metadata !{i32 786453, i32 0, metadata !"", i32 0, i32 0, i64 0, i64 0, i64 0, i32 0, null, metadata !528, i32 0, i32 0} ; [ DW_TAG_subroutine_type ]
!528 = metadata !{null, metadata !365, metadata !132, metadata !108}
!529 = metadata !{i32 786478, i32 0, metadata !348, metadata !"lrotate", metadata !"lrotate", metadata !"_ZN11ap_int_baseILi17ELb1ELb1EE7lrotateEi", metadata !116, i32 1747, metadata !382, i1 false, i1 false, i32 0, i32 0, null, i32 256, i1 false, null, null, i32 0, metadata !128, i32 1747} ; [ DW_TAG_subprogram ]
!530 = metadata !{i32 786478, i32 0, metadata !348, metadata !"rrotate", metadata !"rrotate", metadata !"_ZN11ap_int_baseILi17ELb1ELb1EE7rrotateEi", metadata !116, i32 1756, metadata !382, i1 false, i1 false, i32 0, i32 0, null, i32 256, i1 false, null, null, i32 0, metadata !128, i32 1756} ; [ DW_TAG_subprogram ]
!531 = metadata !{i32 786478, i32 0, metadata !348, metadata !"set_bit", metadata !"set_bit", metadata !"_ZN11ap_int_baseILi17ELb1ELb1EE7set_bitEib", metadata !116, i32 1764, metadata !527, i1 false, i1 false, i32 0, i32 0, null, i32 256, i1 false, null, null, i32 0, metadata !128, i32 1764} ; [ DW_TAG_subprogram ]
!532 = metadata !{i32 786478, i32 0, metadata !348, metadata !"get_bit", metadata !"get_bit", metadata !"_ZNK11ap_int_baseILi17ELb1ELb1EE7get_bitEi", metadata !116, i32 1769, metadata !523, i1 false, i1 false, i32 0, i32 0, null, i32 256, i1 false, null, null, i32 0, metadata !128, i32 1769} ; [ DW_TAG_subprogram ]
!533 = metadata !{i32 786478, i32 0, metadata !348, metadata !"b_not", metadata !"b_not", metadata !"_ZN11ap_int_baseILi17ELb1ELb1EE5b_notEv", metadata !116, i32 1774, metadata !363, i1 false, i1 false, i32 0, i32 0, null, i32 256, i1 false, null, null, i32 0, metadata !128, i32 1774} ; [ DW_TAG_subprogram ]
!534 = metadata !{i32 786478, i32 0, metadata !348, metadata !"countLeadingZeros", metadata !"countLeadingZeros", metadata !"_ZN11ap_int_baseILi17ELb1ELb1EE17countLeadingZerosEv", metadata !116, i32 1781, metadata !535, i1 false, i1 false, i32 0, i32 0, null, i32 256, i1 false, null, null, i32 0, metadata !128, i32 1781} ; [ DW_TAG_subprogram ]
!535 = metadata !{i32 786453, i32 0, metadata !"", i32 0, i32 0, i64 0, i64 0, i64 0, i32 0, null, metadata !536, i32 0, i32 0} ; [ DW_TAG_subroutine_type ]
!536 = metadata !{metadata !132, metadata !365}
!537 = metadata !{i32 786478, i32 0, metadata !348, metadata !"operator++", metadata !"operator++", metadata !"_ZN11ap_int_baseILi17ELb1ELb1EEppEv", metadata !116, i32 1838, metadata !515, i1 false, i1 false, i32 0, i32 0, null, i32 256, i1 false, null, null, i32 0, metadata !128, i32 1838} ; [ DW_TAG_subprogram ]
!538 = metadata !{i32 786478, i32 0, metadata !348, metadata !"operator--", metadata !"operator--", metadata !"_ZN11ap_int_baseILi17ELb1ELb1EEmmEv", metadata !116, i32 1842, metadata !515, i1 false, i1 false, i32 0, i32 0, null, i32 256, i1 false, null, null, i32 0, metadata !128, i32 1842} ; [ DW_TAG_subprogram ]
!539 = metadata !{i32 786478, i32 0, metadata !348, metadata !"operator++", metadata !"operator++", metadata !"_ZN11ap_int_baseILi17ELb1ELb1EEppEi", metadata !116, i32 1850, metadata !540, i1 false, i1 false, i32 0, i32 0, null, i32 256, i1 false, null, null, i32 0, metadata !128, i32 1850} ; [ DW_TAG_subprogram ]
!540 = metadata !{i32 786453, i32 0, metadata !"", i32 0, i32 0, i64 0, i64 0, i64 0, i32 0, null, metadata !541, i32 0, i32 0} ; [ DW_TAG_subroutine_type ]
!541 = metadata !{metadata !420, metadata !365, metadata !132}
!542 = metadata !{i32 786478, i32 0, metadata !348, metadata !"operator--", metadata !"operator--", metadata !"_ZN11ap_int_baseILi17ELb1ELb1EEmmEi", metadata !116, i32 1855, metadata !540, i1 false, i1 false, i32 0, i32 0, null, i32 256, i1 false, null, null, i32 0, metadata !128, i32 1855} ; [ DW_TAG_subprogram ]
!543 = metadata !{i32 786478, i32 0, metadata !348, metadata !"operator+", metadata !"operator+", metadata !"_ZNK11ap_int_baseILi17ELb1ELb1EEpsEv", metadata !116, i32 1864, metadata !544, i1 false, i1 false, i32 0, i32 0, null, i32 256, i1 false, null, null, i32 0, metadata !128, i32 1864} ; [ DW_TAG_subprogram ]
!544 = metadata !{i32 786453, i32 0, metadata !"", i32 0, i32 0, i64 0, i64 0, i64 0, i32 0, null, metadata !545, i32 0, i32 0} ; [ DW_TAG_subroutine_type ]
!545 = metadata !{metadata !348, metadata !472}
!546 = metadata !{i32 786478, i32 0, metadata !348, metadata !"operator!", metadata !"operator!", metadata !"_ZNK11ap_int_baseILi17ELb1ELb1EEntEv", metadata !116, i32 1870, metadata !474, i1 false, i1 false, i32 0, i32 0, null, i32 256, i1 false, null, null, i32 0, metadata !128, i32 1870} ; [ DW_TAG_subprogram ]
!547 = metadata !{i32 786478, i32 0, metadata !348, metadata !"operator-", metadata !"operator-", metadata !"_ZNK11ap_int_baseILi17ELb1ELb1EEngEv", metadata !116, i32 1875, metadata !548, i1 false, i1 false, i32 0, i32 0, null, i32 256, i1 false, null, null, i32 0, metadata !128, i32 1875} ; [ DW_TAG_subprogram ]
!548 = metadata !{i32 786453, i32 0, metadata !"", i32 0, i32 0, i64 0, i64 0, i64 0, i32 0, null, metadata !549, i32 0, i32 0} ; [ DW_TAG_subroutine_type ]
!549 = metadata !{metadata !550, metadata !472}
!550 = metadata !{i32 786434, null, metadata !"ap_int_base<18, true, true>", metadata !116, i32 650, i32 0, i32 0, i32 0, i32 4, null, null, i32 0} ; [ DW_TAG_class_type ]
!551 = metadata !{i32 786478, i32 0, metadata !348, metadata !"range", metadata !"range", metadata !"_ZN11ap_int_baseILi17ELb1ELb1EE5rangeEii", metadata !116, i32 2005, metadata !552, i1 false, i1 false, i32 0, i32 0, null, i32 256, i1 false, null, null, i32 0, metadata !128, i32 2005} ; [ DW_TAG_subprogram ]
!552 = metadata !{i32 786453, i32 0, metadata !"", i32 0, i32 0, i64 0, i64 0, i64 0, i32 0, null, metadata !553, i32 0, i32 0} ; [ DW_TAG_subroutine_type ]
!553 = metadata !{metadata !554, metadata !365, metadata !132, metadata !132}
!554 = metadata !{i32 786434, null, metadata !"ap_range_ref<17, true>", metadata !116, i32 923, i32 0, i32 0, i32 0, i32 4, null, null, i32 0} ; [ DW_TAG_class_type ]
!555 = metadata !{i32 786478, i32 0, metadata !348, metadata !"operator()", metadata !"operator()", metadata !"_ZN11ap_int_baseILi17ELb1ELb1EEclEii", metadata !116, i32 2011, metadata !552, i1 false, i1 false, i32 0, i32 0, null, i32 256, i1 false, null, null, i32 0, metadata !128, i32 2011} ; [ DW_TAG_subprogram ]
!556 = metadata !{i32 786478, i32 0, metadata !348, metadata !"range", metadata !"range", metadata !"_ZNK11ap_int_baseILi17ELb1ELb1EE5rangeEii", metadata !116, i32 2017, metadata !557, i1 false, i1 false, i32 0, i32 0, null, i32 256, i1 false, null, null, i32 0, metadata !128, i32 2017} ; [ DW_TAG_subprogram ]
!557 = metadata !{i32 786453, i32 0, metadata !"", i32 0, i32 0, i64 0, i64 0, i64 0, i32 0, null, metadata !558, i32 0, i32 0} ; [ DW_TAG_subroutine_type ]
!558 = metadata !{metadata !554, metadata !472, metadata !132, metadata !132}
!559 = metadata !{i32 786478, i32 0, metadata !348, metadata !"operator()", metadata !"operator()", metadata !"_ZNK11ap_int_baseILi17ELb1ELb1EEclEii", metadata !116, i32 2023, metadata !557, i1 false, i1 false, i32 0, i32 0, null, i32 256, i1 false, null, null, i32 0, metadata !128, i32 2023} ; [ DW_TAG_subprogram ]
!560 = metadata !{i32 786478, i32 0, metadata !348, metadata !"operator[]", metadata !"operator[]", metadata !"_ZN11ap_int_baseILi17ELb1ELb1EEixEi", metadata !116, i32 2042, metadata !561, i1 false, i1 false, i32 0, i32 0, null, i32 256, i1 false, null, null, i32 0, metadata !128, i32 2042} ; [ DW_TAG_subprogram ]
!561 = metadata !{i32 786453, i32 0, metadata !"", i32 0, i32 0, i64 0, i64 0, i64 0, i32 0, null, metadata !562, i32 0, i32 0} ; [ DW_TAG_subroutine_type ]
!562 = metadata !{metadata !563, metadata !365, metadata !132}
!563 = metadata !{i32 786434, null, metadata !"ap_bit_ref<17, true>", metadata !116, i32 1193, i64 64, i64 32, i32 0, i32 0, null, metadata !564, i32 0, null, metadata !597} ; [ DW_TAG_class_type ]
!564 = metadata !{metadata !565, metadata !566, metadata !567, metadata !573, metadata !577, metadata !581, metadata !582, metadata !586, metadata !589, metadata !590, metadata !593, metadata !594}
!565 = metadata !{i32 786445, metadata !563, metadata !"d_bv", metadata !116, i32 1194, i64 32, i64 32, i64 0, i32 0, metadata !430} ; [ DW_TAG_member ]
!566 = metadata !{i32 786445, metadata !563, metadata !"d_index", metadata !116, i32 1195, i64 32, i64 32, i64 32, i32 0, metadata !132} ; [ DW_TAG_member ]
!567 = metadata !{i32 786478, i32 0, metadata !563, metadata !"ap_bit_ref", metadata !"ap_bit_ref", metadata !"", metadata !116, i32 1198, metadata !568, i1 false, i1 false, i32 0, i32 0, null, i32 256, i1 false, null, null, i32 0, metadata !128, i32 1198} ; [ DW_TAG_subprogram ]
!568 = metadata !{i32 786453, i32 0, metadata !"", i32 0, i32 0, i64 0, i64 0, i64 0, i32 0, null, metadata !569, i32 0, i32 0} ; [ DW_TAG_subroutine_type ]
!569 = metadata !{null, metadata !570, metadata !571}
!570 = metadata !{i32 786447, i32 0, metadata !"", i32 0, i32 0, i64 32, i64 32, i64 0, i32 64, metadata !563} ; [ DW_TAG_pointer_type ]
!571 = metadata !{i32 786448, null, null, null, i32 0, i64 0, i64 0, i64 0, i32 0, metadata !572} ; [ DW_TAG_reference_type ]
!572 = metadata !{i32 786470, null, metadata !"", null, i32 0, i64 0, i64 0, i64 0, i32 0, metadata !563} ; [ DW_TAG_const_type ]
!573 = metadata !{i32 786478, i32 0, metadata !563, metadata !"ap_bit_ref", metadata !"ap_bit_ref", metadata !"", metadata !116, i32 1201, metadata !574, i1 false, i1 false, i32 0, i32 0, null, i32 256, i1 false, null, null, i32 0, metadata !128, i32 1201} ; [ DW_TAG_subprogram ]
!574 = metadata !{i32 786453, i32 0, metadata !"", i32 0, i32 0, i64 0, i64 0, i64 0, i32 0, null, metadata !575, i32 0, i32 0} ; [ DW_TAG_subroutine_type ]
!575 = metadata !{null, metadata !570, metadata !576, metadata !132}
!576 = metadata !{i32 786447, null, metadata !"", null, i32 0, i64 32, i64 32, i64 0, i32 0, metadata !348} ; [ DW_TAG_pointer_type ]
!577 = metadata !{i32 786478, i32 0, metadata !563, metadata !"operator _Bool", metadata !"operator _Bool", metadata !"_ZNK10ap_bit_refILi17ELb1EEcvbEv", metadata !116, i32 1203, metadata !578, i1 false, i1 false, i32 0, i32 0, null, i32 256, i1 false, null, null, i32 0, metadata !128, i32 1203} ; [ DW_TAG_subprogram ]
!578 = metadata !{i32 786453, i32 0, metadata !"", i32 0, i32 0, i64 0, i64 0, i64 0, i32 0, null, metadata !579, i32 0, i32 0} ; [ DW_TAG_subroutine_type ]
!579 = metadata !{metadata !108, metadata !580}
!580 = metadata !{i32 786447, i32 0, metadata !"", i32 0, i32 0, i64 32, i64 32, i64 0, i32 64, metadata !572} ; [ DW_TAG_pointer_type ]
!581 = metadata !{i32 786478, i32 0, metadata !563, metadata !"to_bool", metadata !"to_bool", metadata !"_ZNK10ap_bit_refILi17ELb1EE7to_boolEv", metadata !116, i32 1204, metadata !578, i1 false, i1 false, i32 0, i32 0, null, i32 256, i1 false, null, null, i32 0, metadata !128, i32 1204} ; [ DW_TAG_subprogram ]
!582 = metadata !{i32 786478, i32 0, metadata !563, metadata !"operator=", metadata !"operator=", metadata !"_ZN10ap_bit_refILi17ELb1EEaSEy", metadata !116, i32 1206, metadata !583, i1 false, i1 false, i32 0, i32 0, null, i32 256, i1 false, null, null, i32 0, metadata !128, i32 1206} ; [ DW_TAG_subprogram ]
!583 = metadata !{i32 786453, i32 0, metadata !"", i32 0, i32 0, i64 0, i64 0, i64 0, i32 0, null, metadata !584, i32 0, i32 0} ; [ DW_TAG_subroutine_type ]
!584 = metadata !{metadata !585, metadata !570, metadata !195}
!585 = metadata !{i32 786448, null, null, null, i32 0, i64 0, i64 0, i64 0, i32 0, metadata !563} ; [ DW_TAG_reference_type ]
!586 = metadata !{i32 786478, i32 0, metadata !563, metadata !"operator=", metadata !"operator=", metadata !"_ZN10ap_bit_refILi17ELb1EEaSERKS0_", metadata !116, i32 1226, metadata !587, i1 false, i1 false, i32 0, i32 0, null, i32 256, i1 false, null, null, i32 0, metadata !128, i32 1226} ; [ DW_TAG_subprogram ]
!587 = metadata !{i32 786453, i32 0, metadata !"", i32 0, i32 0, i64 0, i64 0, i64 0, i32 0, null, metadata !588, i32 0, i32 0} ; [ DW_TAG_subroutine_type ]
!588 = metadata !{metadata !585, metadata !570, metadata !571}
!589 = metadata !{i32 786478, i32 0, metadata !563, metadata !"get", metadata !"get", metadata !"_ZNK10ap_bit_refILi17ELb1EE3getEv", metadata !116, i32 1334, metadata !578, i1 false, i1 false, i32 0, i32 0, null, i32 256, i1 false, null, null, i32 0, metadata !128, i32 1334} ; [ DW_TAG_subprogram ]
!590 = metadata !{i32 786478, i32 0, metadata !563, metadata !"get", metadata !"get", metadata !"_ZN10ap_bit_refILi17ELb1EE3getEv", metadata !116, i32 1338, metadata !591, i1 false, i1 false, i32 0, i32 0, null, i32 256, i1 false, null, null, i32 0, metadata !128, i32 1338} ; [ DW_TAG_subprogram ]
!591 = metadata !{i32 786453, i32 0, metadata !"", i32 0, i32 0, i64 0, i64 0, i64 0, i32 0, null, metadata !592, i32 0, i32 0} ; [ DW_TAG_subroutine_type ]
!592 = metadata !{metadata !108, metadata !570}
!593 = metadata !{i32 786478, i32 0, metadata !563, metadata !"operator~", metadata !"operator~", metadata !"_ZNK10ap_bit_refILi17ELb1EEcoEv", metadata !116, i32 1347, metadata !578, i1 false, i1 false, i32 0, i32 0, null, i32 256, i1 false, null, null, i32 0, metadata !128, i32 1347} ; [ DW_TAG_subprogram ]
!594 = metadata !{i32 786478, i32 0, metadata !563, metadata !"length", metadata !"length", metadata !"_ZNK10ap_bit_refILi17ELb1EE6lengthEv", metadata !116, i32 1352, metadata !595, i1 false, i1 false, i32 0, i32 0, null, i32 256, i1 false, null, null, i32 0, metadata !128, i32 1352} ; [ DW_TAG_subprogram ]
!595 = metadata !{i32 786453, i32 0, metadata !"", i32 0, i32 0, i64 0, i64 0, i64 0, i32 0, null, metadata !596, i32 0, i32 0} ; [ DW_TAG_subroutine_type ]
!596 = metadata !{metadata !132, metadata !580}
!597 = metadata !{metadata !598, metadata !361}
!598 = metadata !{i32 786480, null, metadata !"_AP_W", metadata !132, i64 17, null, i32 0, i32 0} ; [ DW_TAG_template_value_parameter ]
!599 = metadata !{i32 786478, i32 0, metadata !348, metadata !"operator[]", metadata !"operator[]", metadata !"_ZNK11ap_int_baseILi17ELb1ELb1EEixEi", metadata !116, i32 2056, metadata !523, i1 false, i1 false, i32 0, i32 0, null, i32 256, i1 false, null, null, i32 0, metadata !128, i32 2056} ; [ DW_TAG_subprogram ]
!600 = metadata !{i32 786478, i32 0, metadata !348, metadata !"bit", metadata !"bit", metadata !"_ZN11ap_int_baseILi17ELb1ELb1EE3bitEi", metadata !116, i32 2070, metadata !561, i1 false, i1 false, i32 0, i32 0, null, i32 256, i1 false, null, null, i32 0, metadata !128, i32 2070} ; [ DW_TAG_subprogram ]
!601 = metadata !{i32 786478, i32 0, metadata !348, metadata !"bit", metadata !"bit", metadata !"_ZNK11ap_int_baseILi17ELb1ELb1EE3bitEi", metadata !116, i32 2084, metadata !523, i1 false, i1 false, i32 0, i32 0, null, i32 256, i1 false, null, null, i32 0, metadata !128, i32 2084} ; [ DW_TAG_subprogram ]
!602 = metadata !{i32 786478, i32 0, metadata !348, metadata !"and_reduce", metadata !"and_reduce", metadata !"_ZN11ap_int_baseILi17ELb1ELb1EE10and_reduceEv", metadata !116, i32 2264, metadata !603, i1 false, i1 false, i32 0, i32 0, null, i32 256, i1 false, null, null, i32 0, metadata !128, i32 2264} ; [ DW_TAG_subprogram ]
!603 = metadata !{i32 786453, i32 0, metadata !"", i32 0, i32 0, i64 0, i64 0, i64 0, i32 0, null, metadata !604, i32 0, i32 0} ; [ DW_TAG_subroutine_type ]
!604 = metadata !{metadata !108, metadata !365}
!605 = metadata !{i32 786478, i32 0, metadata !348, metadata !"nand_reduce", metadata !"nand_reduce", metadata !"_ZN11ap_int_baseILi17ELb1ELb1EE11nand_reduceEv", metadata !116, i32 2267, metadata !603, i1 false, i1 false, i32 0, i32 0, null, i32 256, i1 false, null, null, i32 0, metadata !128, i32 2267} ; [ DW_TAG_subprogram ]
!606 = metadata !{i32 786478, i32 0, metadata !348, metadata !"or_reduce", metadata !"or_reduce", metadata !"_ZN11ap_int_baseILi17ELb1ELb1EE9or_reduceEv", metadata !116, i32 2270, metadata !603, i1 false, i1 false, i32 0, i32 0, null, i32 256, i1 false, null, null, i32 0, metadata !128, i32 2270} ; [ DW_TAG_subprogram ]
!607 = metadata !{i32 786478, i32 0, metadata !348, metadata !"nor_reduce", metadata !"nor_reduce", metadata !"_ZN11ap_int_baseILi17ELb1ELb1EE10nor_reduceEv", metadata !116, i32 2273, metadata !603, i1 false, i1 false, i32 0, i32 0, null, i32 256, i1 false, null, null, i32 0, metadata !128, i32 2273} ; [ DW_TAG_subprogram ]
!608 = metadata !{i32 786478, i32 0, metadata !348, metadata !"xor_reduce", metadata !"xor_reduce", metadata !"_ZN11ap_int_baseILi17ELb1ELb1EE10xor_reduceEv", metadata !116, i32 2276, metadata !603, i1 false, i1 false, i32 0, i32 0, null, i32 256, i1 false, null, null, i32 0, metadata !128, i32 2276} ; [ DW_TAG_subprogram ]
!609 = metadata !{i32 786478, i32 0, metadata !348, metadata !"xnor_reduce", metadata !"xnor_reduce", metadata !"_ZN11ap_int_baseILi17ELb1ELb1EE11xnor_reduceEv", metadata !116, i32 2279, metadata !603, i1 false, i1 false, i32 0, i32 0, null, i32 256, i1 false, null, null, i32 0, metadata !128, i32 2279} ; [ DW_TAG_subprogram ]
!610 = metadata !{i32 786478, i32 0, metadata !348, metadata !"and_reduce", metadata !"and_reduce", metadata !"_ZNK11ap_int_baseILi17ELb1ELb1EE10and_reduceEv", metadata !116, i32 2283, metadata !474, i1 false, i1 false, i32 0, i32 0, null, i32 256, i1 false, null, null, i32 0, metadata !128, i32 2283} ; [ DW_TAG_subprogram ]
!611 = metadata !{i32 786478, i32 0, metadata !348, metadata !"nand_reduce", metadata !"nand_reduce", metadata !"_ZNK11ap_int_baseILi17ELb1ELb1EE11nand_reduceEv", metadata !116, i32 2286, metadata !474, i1 false, i1 false, i32 0, i32 0, null, i32 256, i1 false, null, null, i32 0, metadata !128, i32 2286} ; [ DW_TAG_subprogram ]
!612 = metadata !{i32 786478, i32 0, metadata !348, metadata !"or_reduce", metadata !"or_reduce", metadata !"_ZNK11ap_int_baseILi17ELb1ELb1EE9or_reduceEv", metadata !116, i32 2289, metadata !474, i1 false, i1 false, i32 0, i32 0, null, i32 256, i1 false, null, null, i32 0, metadata !128, i32 2289} ; [ DW_TAG_subprogram ]
!613 = metadata !{i32 786478, i32 0, metadata !348, metadata !"nor_reduce", metadata !"nor_reduce", metadata !"_ZNK11ap_int_baseILi17ELb1ELb1EE10nor_reduceEv", metadata !116, i32 2292, metadata !474, i1 false, i1 false, i32 0, i32 0, null, i32 256, i1 false, null, null, i32 0, metadata !128, i32 2292} ; [ DW_TAG_subprogram ]
!614 = metadata !{i32 786478, i32 0, metadata !348, metadata !"xor_reduce", metadata !"xor_reduce", metadata !"_ZNK11ap_int_baseILi17ELb1ELb1EE10xor_reduceEv", metadata !116, i32 2295, metadata !474, i1 false, i1 false, i32 0, i32 0, null, i32 256, i1 false, null, null, i32 0, metadata !128, i32 2295} ; [ DW_TAG_subprogram ]
!615 = metadata !{i32 786478, i32 0, metadata !348, metadata !"xnor_reduce", metadata !"xnor_reduce", metadata !"_ZNK11ap_int_baseILi17ELb1ELb1EE11xnor_reduceEv", metadata !116, i32 2298, metadata !474, i1 false, i1 false, i32 0, i32 0, null, i32 256, i1 false, null, null, i32 0, metadata !128, i32 2298} ; [ DW_TAG_subprogram ]
!616 = metadata !{i32 786478, i32 0, metadata !348, metadata !"to_string", metadata !"to_string", metadata !"_ZNK11ap_int_baseILi17ELb1ELb1EE9to_stringEPci8BaseModeb", metadata !116, i32 2305, metadata !617, i1 false, i1 false, i32 0, i32 0, null, i32 256, i1 false, null, null, i32 0, metadata !128, i32 2305} ; [ DW_TAG_subprogram ]
!617 = metadata !{i32 786453, i32 0, metadata !"", i32 0, i32 0, i64 0, i64 0, i64 0, i32 0, null, metadata !618, i32 0, i32 0} ; [ DW_TAG_subroutine_type ]
!618 = metadata !{null, metadata !472, metadata !619, metadata !132, metadata !620, metadata !108}
!619 = metadata !{i32 786447, null, metadata !"", null, i32 0, i64 32, i64 32, i64 0, i32 0, metadata !209} ; [ DW_TAG_pointer_type ]
!620 = metadata !{i32 786436, null, metadata !"BaseMode", metadata !116, i32 602, i64 5, i64 8, i32 0, i32 0, null, metadata !621, i32 0, i32 0} ; [ DW_TAG_enumeration_type ]
!621 = metadata !{metadata !622, metadata !623, metadata !624, metadata !625}
!622 = metadata !{i32 786472, metadata !"SC_BIN", i64 2} ; [ DW_TAG_enumerator ]
!623 = metadata !{i32 786472, metadata !"SC_OCT", i64 8} ; [ DW_TAG_enumerator ]
!624 = metadata !{i32 786472, metadata !"SC_DEC", i64 10} ; [ DW_TAG_enumerator ]
!625 = metadata !{i32 786472, metadata !"SC_HEX", i64 16} ; [ DW_TAG_enumerator ]
!626 = metadata !{i32 786478, i32 0, metadata !348, metadata !"to_string", metadata !"to_string", metadata !"_ZNK11ap_int_baseILi17ELb1ELb1EE9to_stringE8BaseModeb", metadata !116, i32 2332, metadata !627, i1 false, i1 false, i32 0, i32 0, null, i32 256, i1 false, null, null, i32 0, metadata !128, i32 2332} ; [ DW_TAG_subprogram ]
!627 = metadata !{i32 786453, i32 0, metadata !"", i32 0, i32 0, i64 0, i64 0, i64 0, i32 0, null, metadata !628, i32 0, i32 0} ; [ DW_TAG_subroutine_type ]
!628 = metadata !{metadata !619, metadata !472, metadata !620, metadata !108}
!629 = metadata !{i32 786478, i32 0, metadata !348, metadata !"to_string", metadata !"to_string", metadata !"_ZNK11ap_int_baseILi17ELb1ELb1EE9to_stringEab", metadata !116, i32 2336, metadata !630, i1 false, i1 false, i32 0, i32 0, null, i32 256, i1 false, null, null, i32 0, metadata !128, i32 2336} ; [ DW_TAG_subprogram ]
!630 = metadata !{i32 786453, i32 0, metadata !"", i32 0, i32 0, i64 0, i64 0, i64 0, i32 0, null, metadata !631, i32 0, i32 0} ; [ DW_TAG_subroutine_type ]
!631 = metadata !{metadata !619, metadata !472, metadata !158, metadata !108}
!632 = metadata !{metadata !598, metadata !361, metadata !633}
!633 = metadata !{i32 786480, null, metadata !"_AP_C", metadata !108, i64 1, null, i32 0, i32 0} ; [ DW_TAG_template_value_parameter ]
!634 = metadata !{i32 786478, i32 0, metadata !115, metadata !"range", metadata !"range", metadata !"_ZN11ap_int_baseILi16ELb0ELb1EE5rangeEii", metadata !116, i32 2005, metadata !635, i1 false, i1 false, i32 0, i32 0, null, i32 256, i1 false, null, null, i32 0, metadata !128, i32 2005} ; [ DW_TAG_subprogram ]
!635 = metadata !{i32 786453, i32 0, metadata !"", i32 0, i32 0, i64 0, i64 0, i64 0, i32 0, null, metadata !636, i32 0, i32 0} ; [ DW_TAG_subroutine_type ]
!636 = metadata !{metadata !637, metadata !137, metadata !132, metadata !132}
!637 = metadata !{i32 786434, null, metadata !"ap_range_ref<16, false>", metadata !116, i32 923, i32 0, i32 0, i32 0, i32 4, null, null, i32 0} ; [ DW_TAG_class_type ]
!638 = metadata !{i32 786478, i32 0, metadata !115, metadata !"operator()", metadata !"operator()", metadata !"_ZN11ap_int_baseILi16ELb0ELb1EEclEii", metadata !116, i32 2011, metadata !635, i1 false, i1 false, i32 0, i32 0, null, i32 256, i1 false, null, null, i32 0, metadata !128, i32 2011} ; [ DW_TAG_subprogram ]
!639 = metadata !{i32 786478, i32 0, metadata !115, metadata !"range", metadata !"range", metadata !"_ZNK11ap_int_baseILi16ELb0ELb1EE5rangeEii", metadata !116, i32 2017, metadata !640, i1 false, i1 false, i32 0, i32 0, null, i32 256, i1 false, null, null, i32 0, metadata !128, i32 2017} ; [ DW_TAG_subprogram ]
!640 = metadata !{i32 786453, i32 0, metadata !"", i32 0, i32 0, i64 0, i64 0, i64 0, i32 0, null, metadata !641, i32 0, i32 0} ; [ DW_TAG_subroutine_type ]
!641 = metadata !{metadata !637, metadata !270, metadata !132, metadata !132}
!642 = metadata !{i32 786478, i32 0, metadata !115, metadata !"operator()", metadata !"operator()", metadata !"_ZNK11ap_int_baseILi16ELb0ELb1EEclEii", metadata !116, i32 2023, metadata !640, i1 false, i1 false, i32 0, i32 0, null, i32 256, i1 false, null, null, i32 0, metadata !128, i32 2023} ; [ DW_TAG_subprogram ]
!643 = metadata !{i32 786478, i32 0, metadata !115, metadata !"operator[]", metadata !"operator[]", metadata !"_ZN11ap_int_baseILi16ELb0ELb1EEixEi", metadata !116, i32 2042, metadata !644, i1 false, i1 false, i32 0, i32 0, null, i32 256, i1 false, null, null, i32 0, metadata !128, i32 2042} ; [ DW_TAG_subprogram ]
!644 = metadata !{i32 786453, i32 0, metadata !"", i32 0, i32 0, i64 0, i64 0, i64 0, i32 0, null, metadata !645, i32 0, i32 0} ; [ DW_TAG_subroutine_type ]
!645 = metadata !{metadata !646, metadata !137, metadata !132}
!646 = metadata !{i32 786434, null, metadata !"ap_bit_ref<16, false>", metadata !116, i32 1193, i32 0, i32 0, i32 0, i32 4, null, null, i32 0} ; [ DW_TAG_class_type ]
!647 = metadata !{i32 786478, i32 0, metadata !115, metadata !"operator[]", metadata !"operator[]", metadata !"_ZNK11ap_int_baseILi16ELb0ELb1EEixEi", metadata !116, i32 2056, metadata !321, i1 false, i1 false, i32 0, i32 0, null, i32 256, i1 false, null, null, i32 0, metadata !128, i32 2056} ; [ DW_TAG_subprogram ]
!648 = metadata !{i32 786478, i32 0, metadata !115, metadata !"bit", metadata !"bit", metadata !"_ZN11ap_int_baseILi16ELb0ELb1EE3bitEi", metadata !116, i32 2070, metadata !644, i1 false, i1 false, i32 0, i32 0, null, i32 256, i1 false, null, null, i32 0, metadata !128, i32 2070} ; [ DW_TAG_subprogram ]
!649 = metadata !{i32 786478, i32 0, metadata !115, metadata !"bit", metadata !"bit", metadata !"_ZNK11ap_int_baseILi16ELb0ELb1EE3bitEi", metadata !116, i32 2084, metadata !321, i1 false, i1 false, i32 0, i32 0, null, i32 256, i1 false, null, null, i32 0, metadata !128, i32 2084} ; [ DW_TAG_subprogram ]
!650 = metadata !{i32 786478, i32 0, metadata !115, metadata !"and_reduce", metadata !"and_reduce", metadata !"_ZN11ap_int_baseILi16ELb0ELb1EE10and_reduceEv", metadata !116, i32 2264, metadata !651, i1 false, i1 false, i32 0, i32 0, null, i32 256, i1 false, null, null, i32 0, metadata !128, i32 2264} ; [ DW_TAG_subprogram ]
!651 = metadata !{i32 786453, i32 0, metadata !"", i32 0, i32 0, i64 0, i64 0, i64 0, i32 0, null, metadata !652, i32 0, i32 0} ; [ DW_TAG_subroutine_type ]
!652 = metadata !{metadata !108, metadata !137}
!653 = metadata !{i32 786478, i32 0, metadata !115, metadata !"nand_reduce", metadata !"nand_reduce", metadata !"_ZN11ap_int_baseILi16ELb0ELb1EE11nand_reduceEv", metadata !116, i32 2267, metadata !651, i1 false, i1 false, i32 0, i32 0, null, i32 256, i1 false, null, null, i32 0, metadata !128, i32 2267} ; [ DW_TAG_subprogram ]
!654 = metadata !{i32 786478, i32 0, metadata !115, metadata !"or_reduce", metadata !"or_reduce", metadata !"_ZN11ap_int_baseILi16ELb0ELb1EE9or_reduceEv", metadata !116, i32 2270, metadata !651, i1 false, i1 false, i32 0, i32 0, null, i32 256, i1 false, null, null, i32 0, metadata !128, i32 2270} ; [ DW_TAG_subprogram ]
!655 = metadata !{i32 786478, i32 0, metadata !115, metadata !"nor_reduce", metadata !"nor_reduce", metadata !"_ZN11ap_int_baseILi16ELb0ELb1EE10nor_reduceEv", metadata !116, i32 2273, metadata !651, i1 false, i1 false, i32 0, i32 0, null, i32 256, i1 false, null, null, i32 0, metadata !128, i32 2273} ; [ DW_TAG_subprogram ]
!656 = metadata !{i32 786478, i32 0, metadata !115, metadata !"xor_reduce", metadata !"xor_reduce", metadata !"_ZN11ap_int_baseILi16ELb0ELb1EE10xor_reduceEv", metadata !116, i32 2276, metadata !651, i1 false, i1 false, i32 0, i32 0, null, i32 256, i1 false, null, null, i32 0, metadata !128, i32 2276} ; [ DW_TAG_subprogram ]
!657 = metadata !{i32 786478, i32 0, metadata !115, metadata !"xnor_reduce", metadata !"xnor_reduce", metadata !"_ZN11ap_int_baseILi16ELb0ELb1EE11xnor_reduceEv", metadata !116, i32 2279, metadata !651, i1 false, i1 false, i32 0, i32 0, null, i32 256, i1 false, null, null, i32 0, metadata !128, i32 2279} ; [ DW_TAG_subprogram ]
!658 = metadata !{i32 786478, i32 0, metadata !115, metadata !"and_reduce", metadata !"and_reduce", metadata !"_ZNK11ap_int_baseILi16ELb0ELb1EE10and_reduceEv", metadata !116, i32 2283, metadata !272, i1 false, i1 false, i32 0, i32 0, null, i32 256, i1 false, null, null, i32 0, metadata !128, i32 2283} ; [ DW_TAG_subprogram ]
!659 = metadata !{i32 786478, i32 0, metadata !115, metadata !"nand_reduce", metadata !"nand_reduce", metadata !"_ZNK11ap_int_baseILi16ELb0ELb1EE11nand_reduceEv", metadata !116, i32 2286, metadata !272, i1 false, i1 false, i32 0, i32 0, null, i32 256, i1 false, null, null, i32 0, metadata !128, i32 2286} ; [ DW_TAG_subprogram ]
!660 = metadata !{i32 786478, i32 0, metadata !115, metadata !"or_reduce", metadata !"or_reduce", metadata !"_ZNK11ap_int_baseILi16ELb0ELb1EE9or_reduceEv", metadata !116, i32 2289, metadata !272, i1 false, i1 false, i32 0, i32 0, null, i32 256, i1 false, null, null, i32 0, metadata !128, i32 2289} ; [ DW_TAG_subprogram ]
!661 = metadata !{i32 786478, i32 0, metadata !115, metadata !"nor_reduce", metadata !"nor_reduce", metadata !"_ZNK11ap_int_baseILi16ELb0ELb1EE10nor_reduceEv", metadata !116, i32 2292, metadata !272, i1 false, i1 false, i32 0, i32 0, null, i32 256, i1 false, null, null, i32 0, metadata !128, i32 2292} ; [ DW_TAG_subprogram ]
!662 = metadata !{i32 786478, i32 0, metadata !115, metadata !"xor_reduce", metadata !"xor_reduce", metadata !"_ZNK11ap_int_baseILi16ELb0ELb1EE10xor_reduceEv", metadata !116, i32 2295, metadata !272, i1 false, i1 false, i32 0, i32 0, null, i32 256, i1 false, null, null, i32 0, metadata !128, i32 2295} ; [ DW_TAG_subprogram ]
!663 = metadata !{i32 786478, i32 0, metadata !115, metadata !"xnor_reduce", metadata !"xnor_reduce", metadata !"_ZNK11ap_int_baseILi16ELb0ELb1EE11xnor_reduceEv", metadata !116, i32 2298, metadata !272, i1 false, i1 false, i32 0, i32 0, null, i32 256, i1 false, null, null, i32 0, metadata !128, i32 2298} ; [ DW_TAG_subprogram ]
!664 = metadata !{i32 786478, i32 0, metadata !115, metadata !"to_string", metadata !"to_string", metadata !"_ZNK11ap_int_baseILi16ELb0ELb1EE9to_stringEPci8BaseModeb", metadata !116, i32 2305, metadata !665, i1 false, i1 false, i32 0, i32 0, null, i32 256, i1 false, null, null, i32 0, metadata !128, i32 2305} ; [ DW_TAG_subprogram ]
!665 = metadata !{i32 786453, i32 0, metadata !"", i32 0, i32 0, i64 0, i64 0, i64 0, i32 0, null, metadata !666, i32 0, i32 0} ; [ DW_TAG_subroutine_type ]
!666 = metadata !{null, metadata !270, metadata !619, metadata !132, metadata !620, metadata !108}
!667 = metadata !{i32 786478, i32 0, metadata !115, metadata !"to_string", metadata !"to_string", metadata !"_ZNK11ap_int_baseILi16ELb0ELb1EE9to_stringE8BaseModeb", metadata !116, i32 2332, metadata !668, i1 false, i1 false, i32 0, i32 0, null, i32 256, i1 false, null, null, i32 0, metadata !128, i32 2332} ; [ DW_TAG_subprogram ]
!668 = metadata !{i32 786453, i32 0, metadata !"", i32 0, i32 0, i64 0, i64 0, i64 0, i32 0, null, metadata !669, i32 0, i32 0} ; [ DW_TAG_subroutine_type ]
!669 = metadata !{metadata !619, metadata !270, metadata !620, metadata !108}
!670 = metadata !{i32 786478, i32 0, metadata !115, metadata !"to_string", metadata !"to_string", metadata !"_ZNK11ap_int_baseILi16ELb0ELb1EE9to_stringEab", metadata !116, i32 2336, metadata !671, i1 false, i1 false, i32 0, i32 0, null, i32 256, i1 false, null, null, i32 0, metadata !128, i32 2336} ; [ DW_TAG_subprogram ]
!671 = metadata !{i32 786453, i32 0, metadata !"", i32 0, i32 0, i64 0, i64 0, i64 0, i32 0, null, metadata !672, i32 0, i32 0} ; [ DW_TAG_subroutine_type ]
!672 = metadata !{metadata !619, metadata !270, metadata !158, metadata !108}
!673 = metadata !{metadata !674, metadata !133, metadata !633}
!674 = metadata !{i32 786480, null, metadata !"_AP_W", metadata !132, i64 16, null, i32 0, i32 0} ; [ DW_TAG_template_value_parameter ]
!675 = metadata !{i32 786478, i32 0, metadata !111, metadata !"ap_uint", metadata !"ap_uint", metadata !"", metadata !112, i32 183, metadata !676, i1 false, i1 false, i32 0, i32 0, null, i32 256, i1 false, null, null, i32 0, metadata !128, i32 183} ; [ DW_TAG_subprogram ]
!676 = metadata !{i32 786453, i32 0, metadata !"", i32 0, i32 0, i64 0, i64 0, i64 0, i32 0, null, metadata !677, i32 0, i32 0} ; [ DW_TAG_subroutine_type ]
!677 = metadata !{null, metadata !678}
!678 = metadata !{i32 786447, i32 0, metadata !"", i32 0, i32 0, i64 32, i64 32, i64 0, i32 64, metadata !111} ; [ DW_TAG_pointer_type ]
!679 = metadata !{i32 786478, i32 0, metadata !111, metadata !"ap_uint", metadata !"ap_uint", metadata !"", metadata !112, i32 245, metadata !680, i1 false, i1 false, i32 0, i32 0, null, i32 256, i1 false, null, null, i32 0, metadata !128, i32 245} ; [ DW_TAG_subprogram ]
!680 = metadata !{i32 786453, i32 0, metadata !"", i32 0, i32 0, i64 0, i64 0, i64 0, i32 0, null, metadata !681, i32 0, i32 0} ; [ DW_TAG_subroutine_type ]
!681 = metadata !{null, metadata !678, metadata !108}
!682 = metadata !{i32 786478, i32 0, metadata !111, metadata !"ap_uint", metadata !"ap_uint", metadata !"", metadata !112, i32 246, metadata !683, i1 false, i1 false, i32 0, i32 0, null, i32 256, i1 false, null, null, i32 0, metadata !128, i32 246} ; [ DW_TAG_subprogram ]
!683 = metadata !{i32 786453, i32 0, metadata !"", i32 0, i32 0, i64 0, i64 0, i64 0, i32 0, null, metadata !684, i32 0, i32 0} ; [ DW_TAG_subroutine_type ]
!684 = metadata !{null, metadata !678, metadata !158}
!685 = metadata !{i32 786478, i32 0, metadata !111, metadata !"ap_uint", metadata !"ap_uint", metadata !"", metadata !112, i32 247, metadata !686, i1 false, i1 false, i32 0, i32 0, null, i32 256, i1 false, null, null, i32 0, metadata !128, i32 247} ; [ DW_TAG_subprogram ]
!686 = metadata !{i32 786453, i32 0, metadata !"", i32 0, i32 0, i64 0, i64 0, i64 0, i32 0, null, metadata !687, i32 0, i32 0} ; [ DW_TAG_subroutine_type ]
!687 = metadata !{null, metadata !678, metadata !162}
!688 = metadata !{i32 786478, i32 0, metadata !111, metadata !"ap_uint", metadata !"ap_uint", metadata !"", metadata !112, i32 248, metadata !689, i1 false, i1 false, i32 0, i32 0, null, i32 256, i1 false, null, null, i32 0, metadata !128, i32 248} ; [ DW_TAG_subprogram ]
!689 = metadata !{i32 786453, i32 0, metadata !"", i32 0, i32 0, i64 0, i64 0, i64 0, i32 0, null, metadata !690, i32 0, i32 0} ; [ DW_TAG_subroutine_type ]
!690 = metadata !{null, metadata !678, metadata !166}
!691 = metadata !{i32 786478, i32 0, metadata !111, metadata !"ap_uint", metadata !"ap_uint", metadata !"", metadata !112, i32 249, metadata !692, i1 false, i1 false, i32 0, i32 0, null, i32 256, i1 false, null, null, i32 0, metadata !128, i32 249} ; [ DW_TAG_subprogram ]
!692 = metadata !{i32 786453, i32 0, metadata !"", i32 0, i32 0, i64 0, i64 0, i64 0, i32 0, null, metadata !693, i32 0, i32 0} ; [ DW_TAG_subroutine_type ]
!693 = metadata !{null, metadata !678, metadata !170}
!694 = metadata !{i32 786478, i32 0, metadata !111, metadata !"ap_uint", metadata !"ap_uint", metadata !"", metadata !112, i32 250, metadata !695, i1 false, i1 false, i32 0, i32 0, null, i32 256, i1 false, null, null, i32 0, metadata !128, i32 250} ; [ DW_TAG_subprogram ]
!695 = metadata !{i32 786453, i32 0, metadata !"", i32 0, i32 0, i64 0, i64 0, i64 0, i32 0, null, metadata !696, i32 0, i32 0} ; [ DW_TAG_subroutine_type ]
!696 = metadata !{null, metadata !678, metadata !132}
!697 = metadata !{i32 786478, i32 0, metadata !111, metadata !"ap_uint", metadata !"ap_uint", metadata !"", metadata !112, i32 251, metadata !698, i1 false, i1 false, i32 0, i32 0, null, i32 256, i1 false, null, null, i32 0, metadata !128, i32 251} ; [ DW_TAG_subprogram ]
!698 = metadata !{i32 786453, i32 0, metadata !"", i32 0, i32 0, i64 0, i64 0, i64 0, i32 0, null, metadata !699, i32 0, i32 0} ; [ DW_TAG_subroutine_type ]
!699 = metadata !{null, metadata !678, metadata !177}
!700 = metadata !{i32 786478, i32 0, metadata !111, metadata !"ap_uint", metadata !"ap_uint", metadata !"", metadata !112, i32 252, metadata !701, i1 false, i1 false, i32 0, i32 0, null, i32 256, i1 false, null, null, i32 0, metadata !128, i32 252} ; [ DW_TAG_subprogram ]
!701 = metadata !{i32 786453, i32 0, metadata !"", i32 0, i32 0, i64 0, i64 0, i64 0, i32 0, null, metadata !702, i32 0, i32 0} ; [ DW_TAG_subroutine_type ]
!702 = metadata !{null, metadata !678, metadata !181}
!703 = metadata !{i32 786478, i32 0, metadata !111, metadata !"ap_uint", metadata !"ap_uint", metadata !"", metadata !112, i32 253, metadata !704, i1 false, i1 false, i32 0, i32 0, null, i32 256, i1 false, null, null, i32 0, metadata !128, i32 253} ; [ DW_TAG_subprogram ]
!704 = metadata !{i32 786453, i32 0, metadata !"", i32 0, i32 0, i64 0, i64 0, i64 0, i32 0, null, metadata !705, i32 0, i32 0} ; [ DW_TAG_subroutine_type ]
!705 = metadata !{null, metadata !678, metadata !185}
!706 = metadata !{i32 786478, i32 0, metadata !111, metadata !"ap_uint", metadata !"ap_uint", metadata !"", metadata !112, i32 254, metadata !707, i1 false, i1 false, i32 0, i32 0, null, i32 256, i1 false, null, null, i32 0, metadata !128, i32 254} ; [ DW_TAG_subprogram ]
!707 = metadata !{i32 786453, i32 0, metadata !"", i32 0, i32 0, i64 0, i64 0, i64 0, i32 0, null, metadata !708, i32 0, i32 0} ; [ DW_TAG_subroutine_type ]
!708 = metadata !{null, metadata !678, metadata !195}
!709 = metadata !{i32 786478, i32 0, metadata !111, metadata !"ap_uint", metadata !"ap_uint", metadata !"", metadata !112, i32 255, metadata !710, i1 false, i1 false, i32 0, i32 0, null, i32 256, i1 false, null, null, i32 0, metadata !128, i32 255} ; [ DW_TAG_subprogram ]
!710 = metadata !{i32 786453, i32 0, metadata !"", i32 0, i32 0, i64 0, i64 0, i64 0, i32 0, null, metadata !711, i32 0, i32 0} ; [ DW_TAG_subroutine_type ]
!711 = metadata !{null, metadata !678, metadata !190}
!712 = metadata !{i32 786478, i32 0, metadata !111, metadata !"ap_uint", metadata !"ap_uint", metadata !"", metadata !112, i32 256, metadata !713, i1 false, i1 false, i32 0, i32 0, null, i32 256, i1 false, null, null, i32 0, metadata !128, i32 256} ; [ DW_TAG_subprogram ]
!713 = metadata !{i32 786453, i32 0, metadata !"", i32 0, i32 0, i64 0, i64 0, i64 0, i32 0, null, metadata !714, i32 0, i32 0} ; [ DW_TAG_subroutine_type ]
!714 = metadata !{null, metadata !678, metadata !199}
!715 = metadata !{i32 786478, i32 0, metadata !111, metadata !"ap_uint", metadata !"ap_uint", metadata !"", metadata !112, i32 257, metadata !716, i1 false, i1 false, i32 0, i32 0, null, i32 256, i1 false, null, null, i32 0, metadata !128, i32 257} ; [ DW_TAG_subprogram ]
!716 = metadata !{i32 786453, i32 0, metadata !"", i32 0, i32 0, i64 0, i64 0, i64 0, i32 0, null, metadata !717, i32 0, i32 0} ; [ DW_TAG_subroutine_type ]
!717 = metadata !{null, metadata !678, metadata !203}
!718 = metadata !{i32 786478, i32 0, metadata !111, metadata !"ap_uint", metadata !"ap_uint", metadata !"", metadata !112, i32 259, metadata !719, i1 false, i1 false, i32 0, i32 0, null, i32 256, i1 false, null, null, i32 0, metadata !128, i32 259} ; [ DW_TAG_subprogram ]
!719 = metadata !{i32 786453, i32 0, metadata !"", i32 0, i32 0, i64 0, i64 0, i64 0, i32 0, null, metadata !720, i32 0, i32 0} ; [ DW_TAG_subroutine_type ]
!720 = metadata !{null, metadata !678, metadata !207}
!721 = metadata !{i32 786478, i32 0, metadata !111, metadata !"ap_uint", metadata !"ap_uint", metadata !"", metadata !112, i32 260, metadata !722, i1 false, i1 false, i32 0, i32 0, null, i32 256, i1 false, null, null, i32 0, metadata !128, i32 260} ; [ DW_TAG_subprogram ]
!722 = metadata !{i32 786453, i32 0, metadata !"", i32 0, i32 0, i64 0, i64 0, i64 0, i32 0, null, metadata !723, i32 0, i32 0} ; [ DW_TAG_subroutine_type ]
!723 = metadata !{null, metadata !678, metadata !207, metadata !158}
!724 = metadata !{i32 786478, i32 0, metadata !111, metadata !"operator=", metadata !"operator=", metadata !"_ZNV7ap_uintILi16EEaSERKS0_", metadata !112, i32 263, metadata !725, i1 false, i1 false, i32 0, i32 0, null, i32 256, i1 false, null, null, i32 0, metadata !128, i32 263} ; [ DW_TAG_subprogram ]
!725 = metadata !{i32 786453, i32 0, metadata !"", i32 0, i32 0, i64 0, i64 0, i64 0, i32 0, null, metadata !726, i32 0, i32 0} ; [ DW_TAG_subroutine_type ]
!726 = metadata !{null, metadata !727, metadata !729}
!727 = metadata !{i32 786447, i32 0, metadata !"", i32 0, i32 0, i64 32, i64 32, i64 0, i32 64, metadata !728} ; [ DW_TAG_pointer_type ]
!728 = metadata !{i32 786485, null, metadata !"", null, i32 0, i64 0, i64 0, i64 0, i32 0, metadata !111} ; [ DW_TAG_volatile_type ]
!729 = metadata !{i32 786448, null, null, null, i32 0, i64 0, i64 0, i64 0, i32 0, metadata !730} ; [ DW_TAG_reference_type ]
!730 = metadata !{i32 786470, null, metadata !"", null, i32 0, i64 0, i64 0, i64 0, i32 0, metadata !111} ; [ DW_TAG_const_type ]
!731 = metadata !{i32 786478, i32 0, metadata !111, metadata !"operator=", metadata !"operator=", metadata !"_ZNV7ap_uintILi16EEaSERVKS0_", metadata !112, i32 267, metadata !732, i1 false, i1 false, i32 0, i32 0, null, i32 256, i1 false, null, null, i32 0, metadata !128, i32 267} ; [ DW_TAG_subprogram ]
!732 = metadata !{i32 786453, i32 0, metadata !"", i32 0, i32 0, i64 0, i64 0, i64 0, i32 0, null, metadata !733, i32 0, i32 0} ; [ DW_TAG_subroutine_type ]
!733 = metadata !{null, metadata !727, metadata !734}
!734 = metadata !{i32 786448, null, null, null, i32 0, i64 0, i64 0, i64 0, i32 0, metadata !735} ; [ DW_TAG_reference_type ]
!735 = metadata !{i32 786470, null, metadata !"", null, i32 0, i64 0, i64 0, i64 0, i32 0, metadata !728} ; [ DW_TAG_const_type ]
!736 = metadata !{i32 786478, i32 0, metadata !111, metadata !"operator=", metadata !"operator=", metadata !"_ZN7ap_uintILi16EEaSERVKS0_", metadata !112, i32 271, metadata !737, i1 false, i1 false, i32 0, i32 0, null, i32 256, i1 false, null, null, i32 0, metadata !128, i32 271} ; [ DW_TAG_subprogram ]
!737 = metadata !{i32 786453, i32 0, metadata !"", i32 0, i32 0, i64 0, i64 0, i64 0, i32 0, null, metadata !738, i32 0, i32 0} ; [ DW_TAG_subroutine_type ]
!738 = metadata !{metadata !739, metadata !678, metadata !734}
!739 = metadata !{i32 786448, null, null, null, i32 0, i64 0, i64 0, i64 0, i32 0, metadata !111} ; [ DW_TAG_reference_type ]
!740 = metadata !{i32 786478, i32 0, metadata !111, metadata !"operator=", metadata !"operator=", metadata !"_ZN7ap_uintILi16EEaSERKS0_", metadata !112, i32 276, metadata !741, i1 false, i1 false, i32 0, i32 0, null, i32 256, i1 false, null, null, i32 0, metadata !128, i32 276} ; [ DW_TAG_subprogram ]
!741 = metadata !{i32 786453, i32 0, metadata !"", i32 0, i32 0, i64 0, i64 0, i64 0, i32 0, null, metadata !742, i32 0, i32 0} ; [ DW_TAG_subroutine_type ]
!742 = metadata !{metadata !739, metadata !678, metadata !729}
!743 = metadata !{i32 786478, i32 0, metadata !111, metadata !"~ap_uint", metadata !"~ap_uint", metadata !"", metadata !112, i32 180, metadata !676, i1 false, i1 false, i32 0, i32 0, null, i32 320, i1 false, null, null, i32 0, metadata !128, i32 180} ; [ DW_TAG_subprogram ]
!744 = metadata !{metadata !674}
!745 = metadata !{i32 30, i32 27, metadata !103, null}
!746 = metadata !{i32 786689, metadata !103, metadata !"reset", metadata !104, i32 33554461, metadata !108, i32 0, i32 0} ; [ DW_TAG_arg_variable ]
!747 = metadata !{i32 29, i32 37, metadata !103, null}
!748 = metadata !{i32 786689, metadata !103, metadata !"data_out", metadata !104, i32 16777245, metadata !107, i32 0, i32 0} ; [ DW_TAG_arg_variable ]
!749 = metadata !{i32 29, i32 22, metadata !103, null}
!750 = metadata !{i32 790531, metadata !751, metadata !"cur_read_pos.V", null, i32 29, metadata !752, i32 0, i32 0} ; [ DW_TAG_arg_variable_field ]
!751 = metadata !{i32 786689, metadata !103, metadata !"cur_read_pos", metadata !104, i32 50331677, metadata !109, i32 0, i32 0} ; [ DW_TAG_arg_variable ]
!752 = metadata !{i32 786447, null, metadata !"", null, i32 0, i64 32, i64 32, i64 0, i32 0, metadata !753} ; [ DW_TAG_pointer_type ]
!753 = metadata !{i32 786438, null, metadata !"ap_uint<16>", metadata !112, i32 180, i64 16, i64 16, i32 0, i32 0, null, metadata !754, i32 0, null, metadata !744} ; [ DW_TAG_class_field_type ]
!754 = metadata !{metadata !755}
!755 = metadata !{i32 786438, null, metadata !"ap_int_base<16, false, true>", metadata !116, i32 1397, i64 16, i64 16, i32 0, i32 0, null, metadata !756, i32 0, null, metadata !673} ; [ DW_TAG_class_field_type ]
!756 = metadata !{metadata !757}
!757 = metadata !{i32 786438, null, metadata !"ssdm_int<16 + 1024 * 0, false>", metadata !120, i32 18, i64 16, i64 16, i32 0, i32 0, null, metadata !758, i32 0, null, metadata !130} ; [ DW_TAG_class_field_type ]
!758 = metadata !{metadata !122}
!759 = metadata !{i32 29, i32 53, metadata !103, null}
!760 = metadata !{i32 786689, metadata !103, metadata !"rd_mux", metadata !104, i32 100663326, metadata !107, i32 0, i32 0} ; [ DW_TAG_arg_variable ]
!761 = metadata !{i32 30, i32 44, metadata !103, null}
!762 = metadata !{i32 786689, metadata !103, metadata !"mem_out0", null, i32 30, metadata !763, i32 0, i32 0} ; [ DW_TAG_arg_variable ]
!763 = metadata !{i32 786433, null, metadata !"", null, i32 0, i64 16384, i64 8, i32 0, i32 0, metadata !108, metadata !764, i32 0, i32 0} ; [ DW_TAG_array_type ]
!764 = metadata !{metadata !765}
!765 = metadata !{i32 786465, i64 0, i64 2047}    ; [ DW_TAG_subrange_type ]
!766 = metadata !{i32 30, i32 57, metadata !103, null}
!767 = metadata !{i32 786689, metadata !103, metadata !"mem_out1", null, i32 30, metadata !763, i32 0, i32 0} ; [ DW_TAG_arg_variable ]
!768 = metadata !{i32 30, i32 78, metadata !103, null}
!769 = metadata !{i32 786689, metadata !103, metadata !"mem_out2", null, i32 30, metadata !770, i32 0, i32 0} ; [ DW_TAG_arg_variable ]
!770 = metadata !{i32 786433, null, metadata !"", null, i32 0, i64 8192, i64 8, i32 0, i32 0, metadata !108, metadata !771, i32 0, i32 0} ; [ DW_TAG_array_type ]
!771 = metadata !{metadata !772}
!772 = metadata !{i32 786465, i64 0, i64 1023}    ; [ DW_TAG_subrange_type ]
!773 = metadata !{i32 30, i32 99, metadata !103, null}
!774 = metadata !{i32 786689, metadata !103, metadata !"mem_out3", null, i32 31, metadata !770, i32 0, i32 0} ; [ DW_TAG_arg_variable ]
!775 = metadata !{i32 31, i32 10, metadata !103, null}
!776 = metadata !{i32 786689, metadata !103, metadata !"mem_out4", null, i32 31, metadata !770, i32 0, i32 0} ; [ DW_TAG_arg_variable ]
!777 = metadata !{i32 31, i32 31, metadata !103, null}
!778 = metadata !{i32 786689, metadata !103, metadata !"mem_out5", null, i32 31, metadata !770, i32 0, i32 0} ; [ DW_TAG_arg_variable ]
!779 = metadata !{i32 31, i32 52, metadata !103, null}
!780 = metadata !{i32 786689, metadata !103, metadata !"mem_out6", null, i32 31, metadata !770, i32 0, i32 0} ; [ DW_TAG_arg_variable ]
!781 = metadata !{i32 31, i32 73, metadata !103, null}
!782 = metadata !{i32 786689, metadata !103, metadata !"mem_out7", null, i32 31, metadata !770, i32 0, i32 0} ; [ DW_TAG_arg_variable ]
!783 = metadata !{i32 31, i32 94, metadata !103, null}
!784 = metadata !{i32 33, i32 1, metadata !785, null}
!785 = metadata !{i32 786443, metadata !103, i32 32, i32 1, metadata !104, i32 0} ; [ DW_TAG_lexical_block ]
!786 = metadata !{i32 39, i32 2, metadata !785, null}
!787 = metadata !{i32 74, i32 2, metadata !785, null}
!788 = metadata !{i32 91, i32 5, metadata !789, null}
!789 = metadata !{i32 786443, metadata !790, i32 88, i32 17, metadata !104, i32 11} ; [ DW_TAG_lexical_block ]
!790 = metadata !{i32 786443, metadata !791, i32 87, i32 3, metadata !104, i32 10} ; [ DW_TAG_lexical_block ]
!791 = metadata !{i32 786443, metadata !785, i32 85, i32 2, metadata !104, i32 9} ; [ DW_TAG_lexical_block ]
!792 = metadata !{i32 41, i32 3, metadata !793, null}
!793 = metadata !{i32 786443, metadata !785, i32 40, i32 2, metadata !104, i32 1} ; [ DW_TAG_lexical_block ]
!794 = metadata !{i32 1977, i32 9, metadata !795, metadata !1336}
!795 = metadata !{i32 786443, metadata !796, i32 1976, i32 107, metadata !116, i32 20} ; [ DW_TAG_lexical_block ]
!796 = metadata !{i32 786478, i32 0, null, metadata !"operator==<32, true>", metadata !"operator==<32, true>", metadata !"_ZNK11ap_int_baseILi16ELb0ELb1EEeqILi32ELb1EEEbRKS_IXT_EXT0_EXleT_Li64EEE", metadata !116, i32 1976, metadata !797, i1 false, i1 true, i32 0, i32 0, null, i32 256, i1 false, null, metadata !821, null, metadata !128, i32 1976} ; [ DW_TAG_subprogram ]
!797 = metadata !{i32 786453, i32 0, metadata !"", i32 0, i32 0, i64 0, i64 0, i64 0, i32 0, null, metadata !798, i32 0, i32 0} ; [ DW_TAG_subroutine_type ]
!798 = metadata !{metadata !108, metadata !270, metadata !799}
!799 = metadata !{i32 786448, null, null, null, i32 0, i64 0, i64 0, i64 0, i32 0, metadata !800} ; [ DW_TAG_reference_type ]
!800 = metadata !{i32 786470, null, metadata !"", null, i32 0, i64 0, i64 0, i64 0, i32 0, metadata !801} ; [ DW_TAG_const_type ]
!801 = metadata !{i32 786434, null, metadata !"ap_int_base<32, true, true>", metadata !116, i32 1397, i64 32, i64 32, i32 0, i32 0, null, metadata !802, i32 0, null, metadata !1334} ; [ DW_TAG_class_type ]
!802 = metadata !{metadata !803, metadata !814, metadata !818, metadata !824, metadata !830, metadata !833, metadata !836, metadata !839, metadata !842, metadata !845, metadata !848, metadata !851, metadata !854, metadata !857, metadata !860, metadata !863, metadata !866, metadata !869, metadata !872, metadata !875, metadata !879, metadata !882, metadata !885, metadata !886, metadata !890, metadata !893, metadata !896, metadata !899, metadata !902, metadata !905, metadata !908, metadata !911, metadata !914, metadata !917, metadata !920, metadata !923, metadata !932, metadata !935, metadata !938, metadata !941, metadata !944, metadata !947, metadata !950, metadata !953, metadata !956, metadata !959, metadata !962, metadata !965, metadata !968, metadata !969, metadata !973, metadata !976, metadata !977, metadata !978, metadata !979, metadata !980, metadata !981, metadata !984, metadata !985, metadata !988, metadata !989, metadata !990, metadata !991, metadata !992, metadata !993, metadata !996, metadata !997, metadata !998, metadata !1001, metadata !1002, metadata !1005, metadata !1006, metadata !1294, metadata !1298, metadata !1299, metadata !1302, metadata !1303, metadata !1307, metadata !1308, metadata !1309, metadata !1310, metadata !1313, metadata !1314, metadata !1315, metadata !1316, metadata !1317, metadata !1318, metadata !1319, metadata !1320, metadata !1321, metadata !1322, metadata !1323, metadata !1324, metadata !1327, metadata !1330, metadata !1333}
!803 = metadata !{i32 786460, metadata !801, null, metadata !116, i32 0, i64 0, i64 0, i64 0, i32 0, metadata !804} ; [ DW_TAG_inheritance ]
!804 = metadata !{i32 786434, null, metadata !"ssdm_int<32 + 1024 * 0, true>", metadata !120, i32 34, i64 32, i64 32, i32 0, i32 0, null, metadata !805, i32 0, null, metadata !812} ; [ DW_TAG_class_type ]
!805 = metadata !{metadata !806, metadata !808}
!806 = metadata !{i32 786445, metadata !804, metadata !"V", metadata !120, i32 34, i64 32, i64 32, i64 0, i32 0, metadata !807} ; [ DW_TAG_member ]
!807 = metadata !{i32 786468, null, metadata !"int32", null, i32 0, i64 32, i64 32, i64 0, i32 0, i32 5} ; [ DW_TAG_base_type ]
!808 = metadata !{i32 786478, i32 0, metadata !804, metadata !"ssdm_int", metadata !"ssdm_int", metadata !"", metadata !120, i32 34, metadata !809, i1 false, i1 false, i32 0, i32 0, null, i32 256, i1 false, null, null, i32 0, metadata !128, i32 34} ; [ DW_TAG_subprogram ]
!809 = metadata !{i32 786453, i32 0, metadata !"", i32 0, i32 0, i64 0, i64 0, i64 0, i32 0, null, metadata !810, i32 0, i32 0} ; [ DW_TAG_subroutine_type ]
!810 = metadata !{null, metadata !811}
!811 = metadata !{i32 786447, i32 0, metadata !"", i32 0, i32 0, i64 32, i64 32, i64 0, i32 64, metadata !804} ; [ DW_TAG_pointer_type ]
!812 = metadata !{metadata !813, metadata !361}
!813 = metadata !{i32 786480, null, metadata !"_AP_N", metadata !132, i64 32, null, i32 0, i32 0} ; [ DW_TAG_template_value_parameter ]
!814 = metadata !{i32 786478, i32 0, metadata !801, metadata !"ap_int_base", metadata !"ap_int_base", metadata !"", metadata !116, i32 1438, metadata !815, i1 false, i1 false, i32 0, i32 0, null, i32 256, i1 false, null, null, i32 0, metadata !128, i32 1438} ; [ DW_TAG_subprogram ]
!815 = metadata !{i32 786453, i32 0, metadata !"", i32 0, i32 0, i64 0, i64 0, i64 0, i32 0, null, metadata !816, i32 0, i32 0} ; [ DW_TAG_subroutine_type ]
!816 = metadata !{null, metadata !817}
!817 = metadata !{i32 786447, i32 0, metadata !"", i32 0, i32 0, i64 32, i64 32, i64 0, i32 64, metadata !801} ; [ DW_TAG_pointer_type ]
!818 = metadata !{i32 786478, i32 0, metadata !801, metadata !"ap_int_base<32, true>", metadata !"ap_int_base<32, true>", metadata !"", metadata !116, i32 1450, metadata !819, i1 false, i1 false, i32 0, i32 0, null, i32 256, i1 false, null, metadata !821, i32 0, metadata !128, i32 1450} ; [ DW_TAG_subprogram ]
!819 = metadata !{i32 786453, i32 0, metadata !"", i32 0, i32 0, i64 0, i64 0, i64 0, i32 0, null, metadata !820, i32 0, i32 0} ; [ DW_TAG_subroutine_type ]
!820 = metadata !{null, metadata !817, metadata !799}
!821 = metadata !{metadata !822, metadata !823}
!822 = metadata !{i32 786480, null, metadata !"_AP_W2", metadata !132, i64 32, null, i32 0, i32 0} ; [ DW_TAG_template_value_parameter ]
!823 = metadata !{i32 786480, null, metadata !"_AP_S2", metadata !108, i64 1, null, i32 0, i32 0} ; [ DW_TAG_template_value_parameter ]
!824 = metadata !{i32 786478, i32 0, metadata !801, metadata !"ap_int_base<32, true>", metadata !"ap_int_base<32, true>", metadata !"", metadata !116, i32 1453, metadata !825, i1 false, i1 false, i32 0, i32 0, null, i32 256, i1 false, null, metadata !821, i32 0, metadata !128, i32 1453} ; [ DW_TAG_subprogram ]
!825 = metadata !{i32 786453, i32 0, metadata !"", i32 0, i32 0, i64 0, i64 0, i64 0, i32 0, null, metadata !826, i32 0, i32 0} ; [ DW_TAG_subroutine_type ]
!826 = metadata !{null, metadata !817, metadata !827}
!827 = metadata !{i32 786448, null, null, null, i32 0, i64 0, i64 0, i64 0, i32 0, metadata !828} ; [ DW_TAG_reference_type ]
!828 = metadata !{i32 786470, null, metadata !"", null, i32 0, i64 0, i64 0, i64 0, i32 0, metadata !829} ; [ DW_TAG_const_type ]
!829 = metadata !{i32 786485, null, metadata !"", null, i32 0, i64 0, i64 0, i64 0, i32 0, metadata !801} ; [ DW_TAG_volatile_type ]
!830 = metadata !{i32 786478, i32 0, metadata !801, metadata !"ap_int_base", metadata !"ap_int_base", metadata !"", metadata !116, i32 1460, metadata !831, i1 false, i1 false, i32 0, i32 0, null, i32 384, i1 false, null, null, i32 0, metadata !128, i32 1460} ; [ DW_TAG_subprogram ]
!831 = metadata !{i32 786453, i32 0, metadata !"", i32 0, i32 0, i64 0, i64 0, i64 0, i32 0, null, metadata !832, i32 0, i32 0} ; [ DW_TAG_subroutine_type ]
!832 = metadata !{null, metadata !817, metadata !108}
!833 = metadata !{i32 786478, i32 0, metadata !801, metadata !"ap_int_base", metadata !"ap_int_base", metadata !"", metadata !116, i32 1461, metadata !834, i1 false, i1 false, i32 0, i32 0, null, i32 384, i1 false, null, null, i32 0, metadata !128, i32 1461} ; [ DW_TAG_subprogram ]
!834 = metadata !{i32 786453, i32 0, metadata !"", i32 0, i32 0, i64 0, i64 0, i64 0, i32 0, null, metadata !835, i32 0, i32 0} ; [ DW_TAG_subroutine_type ]
!835 = metadata !{null, metadata !817, metadata !158}
!836 = metadata !{i32 786478, i32 0, metadata !801, metadata !"ap_int_base", metadata !"ap_int_base", metadata !"", metadata !116, i32 1462, metadata !837, i1 false, i1 false, i32 0, i32 0, null, i32 384, i1 false, null, null, i32 0, metadata !128, i32 1462} ; [ DW_TAG_subprogram ]
!837 = metadata !{i32 786453, i32 0, metadata !"", i32 0, i32 0, i64 0, i64 0, i64 0, i32 0, null, metadata !838, i32 0, i32 0} ; [ DW_TAG_subroutine_type ]
!838 = metadata !{null, metadata !817, metadata !162}
!839 = metadata !{i32 786478, i32 0, metadata !801, metadata !"ap_int_base", metadata !"ap_int_base", metadata !"", metadata !116, i32 1463, metadata !840, i1 false, i1 false, i32 0, i32 0, null, i32 384, i1 false, null, null, i32 0, metadata !128, i32 1463} ; [ DW_TAG_subprogram ]
!840 = metadata !{i32 786453, i32 0, metadata !"", i32 0, i32 0, i64 0, i64 0, i64 0, i32 0, null, metadata !841, i32 0, i32 0} ; [ DW_TAG_subroutine_type ]
!841 = metadata !{null, metadata !817, metadata !166}
!842 = metadata !{i32 786478, i32 0, metadata !801, metadata !"ap_int_base", metadata !"ap_int_base", metadata !"", metadata !116, i32 1464, metadata !843, i1 false, i1 false, i32 0, i32 0, null, i32 384, i1 false, null, null, i32 0, metadata !128, i32 1464} ; [ DW_TAG_subprogram ]
!843 = metadata !{i32 786453, i32 0, metadata !"", i32 0, i32 0, i64 0, i64 0, i64 0, i32 0, null, metadata !844, i32 0, i32 0} ; [ DW_TAG_subroutine_type ]
!844 = metadata !{null, metadata !817, metadata !170}
!845 = metadata !{i32 786478, i32 0, metadata !801, metadata !"ap_int_base", metadata !"ap_int_base", metadata !"", metadata !116, i32 1465, metadata !846, i1 false, i1 false, i32 0, i32 0, null, i32 384, i1 false, null, null, i32 0, metadata !128, i32 1465} ; [ DW_TAG_subprogram ]
!846 = metadata !{i32 786453, i32 0, metadata !"", i32 0, i32 0, i64 0, i64 0, i64 0, i32 0, null, metadata !847, i32 0, i32 0} ; [ DW_TAG_subroutine_type ]
!847 = metadata !{null, metadata !817, metadata !132}
!848 = metadata !{i32 786478, i32 0, metadata !801, metadata !"ap_int_base", metadata !"ap_int_base", metadata !"", metadata !116, i32 1466, metadata !849, i1 false, i1 false, i32 0, i32 0, null, i32 384, i1 false, null, null, i32 0, metadata !128, i32 1466} ; [ DW_TAG_subprogram ]
!849 = metadata !{i32 786453, i32 0, metadata !"", i32 0, i32 0, i64 0, i64 0, i64 0, i32 0, null, metadata !850, i32 0, i32 0} ; [ DW_TAG_subroutine_type ]
!850 = metadata !{null, metadata !817, metadata !177}
!851 = metadata !{i32 786478, i32 0, metadata !801, metadata !"ap_int_base", metadata !"ap_int_base", metadata !"", metadata !116, i32 1467, metadata !852, i1 false, i1 false, i32 0, i32 0, null, i32 384, i1 false, null, null, i32 0, metadata !128, i32 1467} ; [ DW_TAG_subprogram ]
!852 = metadata !{i32 786453, i32 0, metadata !"", i32 0, i32 0, i64 0, i64 0, i64 0, i32 0, null, metadata !853, i32 0, i32 0} ; [ DW_TAG_subroutine_type ]
!853 = metadata !{null, metadata !817, metadata !181}
!854 = metadata !{i32 786478, i32 0, metadata !801, metadata !"ap_int_base", metadata !"ap_int_base", metadata !"", metadata !116, i32 1468, metadata !855, i1 false, i1 false, i32 0, i32 0, null, i32 384, i1 false, null, null, i32 0, metadata !128, i32 1468} ; [ DW_TAG_subprogram ]
!855 = metadata !{i32 786453, i32 0, metadata !"", i32 0, i32 0, i64 0, i64 0, i64 0, i32 0, null, metadata !856, i32 0, i32 0} ; [ DW_TAG_subroutine_type ]
!856 = metadata !{null, metadata !817, metadata !185}
!857 = metadata !{i32 786478, i32 0, metadata !801, metadata !"ap_int_base", metadata !"ap_int_base", metadata !"", metadata !116, i32 1469, metadata !858, i1 false, i1 false, i32 0, i32 0, null, i32 384, i1 false, null, null, i32 0, metadata !128, i32 1469} ; [ DW_TAG_subprogram ]
!858 = metadata !{i32 786453, i32 0, metadata !"", i32 0, i32 0, i64 0, i64 0, i64 0, i32 0, null, metadata !859, i32 0, i32 0} ; [ DW_TAG_subroutine_type ]
!859 = metadata !{null, metadata !817, metadata !189}
!860 = metadata !{i32 786478, i32 0, metadata !801, metadata !"ap_int_base", metadata !"ap_int_base", metadata !"", metadata !116, i32 1470, metadata !861, i1 false, i1 false, i32 0, i32 0, null, i32 384, i1 false, null, null, i32 0, metadata !128, i32 1470} ; [ DW_TAG_subprogram ]
!861 = metadata !{i32 786453, i32 0, metadata !"", i32 0, i32 0, i64 0, i64 0, i64 0, i32 0, null, metadata !862, i32 0, i32 0} ; [ DW_TAG_subroutine_type ]
!862 = metadata !{null, metadata !817, metadata !194}
!863 = metadata !{i32 786478, i32 0, metadata !801, metadata !"ap_int_base", metadata !"ap_int_base", metadata !"", metadata !116, i32 1471, metadata !864, i1 false, i1 false, i32 0, i32 0, null, i32 384, i1 false, null, null, i32 0, metadata !128, i32 1471} ; [ DW_TAG_subprogram ]
!864 = metadata !{i32 786453, i32 0, metadata !"", i32 0, i32 0, i64 0, i64 0, i64 0, i32 0, null, metadata !865, i32 0, i32 0} ; [ DW_TAG_subroutine_type ]
!865 = metadata !{null, metadata !817, metadata !199}
!866 = metadata !{i32 786478, i32 0, metadata !801, metadata !"ap_int_base", metadata !"ap_int_base", metadata !"", metadata !116, i32 1472, metadata !867, i1 false, i1 false, i32 0, i32 0, null, i32 384, i1 false, null, null, i32 0, metadata !128, i32 1472} ; [ DW_TAG_subprogram ]
!867 = metadata !{i32 786453, i32 0, metadata !"", i32 0, i32 0, i64 0, i64 0, i64 0, i32 0, null, metadata !868, i32 0, i32 0} ; [ DW_TAG_subroutine_type ]
!868 = metadata !{null, metadata !817, metadata !203}
!869 = metadata !{i32 786478, i32 0, metadata !801, metadata !"ap_int_base", metadata !"ap_int_base", metadata !"", metadata !116, i32 1499, metadata !870, i1 false, i1 false, i32 0, i32 0, null, i32 256, i1 false, null, null, i32 0, metadata !128, i32 1499} ; [ DW_TAG_subprogram ]
!870 = metadata !{i32 786453, i32 0, metadata !"", i32 0, i32 0, i64 0, i64 0, i64 0, i32 0, null, metadata !871, i32 0, i32 0} ; [ DW_TAG_subroutine_type ]
!871 = metadata !{null, metadata !817, metadata !207}
!872 = metadata !{i32 786478, i32 0, metadata !801, metadata !"ap_int_base", metadata !"ap_int_base", metadata !"", metadata !116, i32 1506, metadata !873, i1 false, i1 false, i32 0, i32 0, null, i32 256, i1 false, null, null, i32 0, metadata !128, i32 1506} ; [ DW_TAG_subprogram ]
!873 = metadata !{i32 786453, i32 0, metadata !"", i32 0, i32 0, i64 0, i64 0, i64 0, i32 0, null, metadata !874, i32 0, i32 0} ; [ DW_TAG_subroutine_type ]
!874 = metadata !{null, metadata !817, metadata !207, metadata !158}
!875 = metadata !{i32 786478, i32 0, metadata !801, metadata !"read", metadata !"read", metadata !"_ZNV11ap_int_baseILi32ELb1ELb1EE4readEv", metadata !116, i32 1527, metadata !876, i1 false, i1 false, i32 0, i32 0, null, i32 256, i1 false, null, null, i32 0, metadata !128, i32 1527} ; [ DW_TAG_subprogram ]
!876 = metadata !{i32 786453, i32 0, metadata !"", i32 0, i32 0, i64 0, i64 0, i64 0, i32 0, null, metadata !877, i32 0, i32 0} ; [ DW_TAG_subroutine_type ]
!877 = metadata !{metadata !801, metadata !878}
!878 = metadata !{i32 786447, i32 0, metadata !"", i32 0, i32 0, i64 32, i64 32, i64 0, i32 64, metadata !829} ; [ DW_TAG_pointer_type ]
!879 = metadata !{i32 786478, i32 0, metadata !801, metadata !"write", metadata !"write", metadata !"_ZNV11ap_int_baseILi32ELb1ELb1EE5writeERKS0_", metadata !116, i32 1533, metadata !880, i1 false, i1 false, i32 0, i32 0, null, i32 256, i1 false, null, null, i32 0, metadata !128, i32 1533} ; [ DW_TAG_subprogram ]
!880 = metadata !{i32 786453, i32 0, metadata !"", i32 0, i32 0, i64 0, i64 0, i64 0, i32 0, null, metadata !881, i32 0, i32 0} ; [ DW_TAG_subroutine_type ]
!881 = metadata !{null, metadata !878, metadata !799}
!882 = metadata !{i32 786478, i32 0, metadata !801, metadata !"operator=", metadata !"operator=", metadata !"_ZNV11ap_int_baseILi32ELb1ELb1EEaSERVKS0_", metadata !116, i32 1545, metadata !883, i1 false, i1 false, i32 0, i32 0, null, i32 256, i1 false, null, null, i32 0, metadata !128, i32 1545} ; [ DW_TAG_subprogram ]
!883 = metadata !{i32 786453, i32 0, metadata !"", i32 0, i32 0, i64 0, i64 0, i64 0, i32 0, null, metadata !884, i32 0, i32 0} ; [ DW_TAG_subroutine_type ]
!884 = metadata !{null, metadata !878, metadata !827}
!885 = metadata !{i32 786478, i32 0, metadata !801, metadata !"operator=", metadata !"operator=", metadata !"_ZNV11ap_int_baseILi32ELb1ELb1EEaSERKS0_", metadata !116, i32 1554, metadata !880, i1 false, i1 false, i32 0, i32 0, null, i32 256, i1 false, null, null, i32 0, metadata !128, i32 1554} ; [ DW_TAG_subprogram ]
!886 = metadata !{i32 786478, i32 0, metadata !801, metadata !"operator=", metadata !"operator=", metadata !"_ZN11ap_int_baseILi32ELb1ELb1EEaSERVKS0_", metadata !116, i32 1577, metadata !887, i1 false, i1 false, i32 0, i32 0, null, i32 256, i1 false, null, null, i32 0, metadata !128, i32 1577} ; [ DW_TAG_subprogram ]
!887 = metadata !{i32 786453, i32 0, metadata !"", i32 0, i32 0, i64 0, i64 0, i64 0, i32 0, null, metadata !888, i32 0, i32 0} ; [ DW_TAG_subroutine_type ]
!888 = metadata !{metadata !889, metadata !817, metadata !827}
!889 = metadata !{i32 786448, null, null, null, i32 0, i64 0, i64 0, i64 0, i32 0, metadata !801} ; [ DW_TAG_reference_type ]
!890 = metadata !{i32 786478, i32 0, metadata !801, metadata !"operator=", metadata !"operator=", metadata !"_ZN11ap_int_baseILi32ELb1ELb1EEaSERKS0_", metadata !116, i32 1582, metadata !891, i1 false, i1 false, i32 0, i32 0, null, i32 256, i1 false, null, null, i32 0, metadata !128, i32 1582} ; [ DW_TAG_subprogram ]
!891 = metadata !{i32 786453, i32 0, metadata !"", i32 0, i32 0, i64 0, i64 0, i64 0, i32 0, null, metadata !892, i32 0, i32 0} ; [ DW_TAG_subroutine_type ]
!892 = metadata !{metadata !889, metadata !817, metadata !799}
!893 = metadata !{i32 786478, i32 0, metadata !801, metadata !"operator=", metadata !"operator=", metadata !"_ZN11ap_int_baseILi32ELb1ELb1EEaSEPKc", metadata !116, i32 1586, metadata !894, i1 false, i1 false, i32 0, i32 0, null, i32 256, i1 false, null, null, i32 0, metadata !128, i32 1586} ; [ DW_TAG_subprogram ]
!894 = metadata !{i32 786453, i32 0, metadata !"", i32 0, i32 0, i64 0, i64 0, i64 0, i32 0, null, metadata !895, i32 0, i32 0} ; [ DW_TAG_subroutine_type ]
!895 = metadata !{metadata !889, metadata !817, metadata !207}
!896 = metadata !{i32 786478, i32 0, metadata !801, metadata !"set", metadata !"set", metadata !"_ZN11ap_int_baseILi32ELb1ELb1EE3setEPKca", metadata !116, i32 1594, metadata !897, i1 false, i1 false, i32 0, i32 0, null, i32 256, i1 false, null, null, i32 0, metadata !128, i32 1594} ; [ DW_TAG_subprogram ]
!897 = metadata !{i32 786453, i32 0, metadata !"", i32 0, i32 0, i64 0, i64 0, i64 0, i32 0, null, metadata !898, i32 0, i32 0} ; [ DW_TAG_subroutine_type ]
!898 = metadata !{metadata !889, metadata !817, metadata !207, metadata !158}
!899 = metadata !{i32 786478, i32 0, metadata !801, metadata !"operator=", metadata !"operator=", metadata !"_ZN11ap_int_baseILi32ELb1ELb1EEaSEa", metadata !116, i32 1608, metadata !900, i1 false, i1 false, i32 0, i32 0, null, i32 256, i1 false, null, null, i32 0, metadata !128, i32 1608} ; [ DW_TAG_subprogram ]
!900 = metadata !{i32 786453, i32 0, metadata !"", i32 0, i32 0, i64 0, i64 0, i64 0, i32 0, null, metadata !901, i32 0, i32 0} ; [ DW_TAG_subroutine_type ]
!901 = metadata !{metadata !889, metadata !817, metadata !158}
!902 = metadata !{i32 786478, i32 0, metadata !801, metadata !"operator=", metadata !"operator=", metadata !"_ZN11ap_int_baseILi32ELb1ELb1EEaSEh", metadata !116, i32 1609, metadata !903, i1 false, i1 false, i32 0, i32 0, null, i32 256, i1 false, null, null, i32 0, metadata !128, i32 1609} ; [ DW_TAG_subprogram ]
!903 = metadata !{i32 786453, i32 0, metadata !"", i32 0, i32 0, i64 0, i64 0, i64 0, i32 0, null, metadata !904, i32 0, i32 0} ; [ DW_TAG_subroutine_type ]
!904 = metadata !{metadata !889, metadata !817, metadata !162}
!905 = metadata !{i32 786478, i32 0, metadata !801, metadata !"operator=", metadata !"operator=", metadata !"_ZN11ap_int_baseILi32ELb1ELb1EEaSEs", metadata !116, i32 1610, metadata !906, i1 false, i1 false, i32 0, i32 0, null, i32 256, i1 false, null, null, i32 0, metadata !128, i32 1610} ; [ DW_TAG_subprogram ]
!906 = metadata !{i32 786453, i32 0, metadata !"", i32 0, i32 0, i64 0, i64 0, i64 0, i32 0, null, metadata !907, i32 0, i32 0} ; [ DW_TAG_subroutine_type ]
!907 = metadata !{metadata !889, metadata !817, metadata !166}
!908 = metadata !{i32 786478, i32 0, metadata !801, metadata !"operator=", metadata !"operator=", metadata !"_ZN11ap_int_baseILi32ELb1ELb1EEaSEt", metadata !116, i32 1611, metadata !909, i1 false, i1 false, i32 0, i32 0, null, i32 256, i1 false, null, null, i32 0, metadata !128, i32 1611} ; [ DW_TAG_subprogram ]
!909 = metadata !{i32 786453, i32 0, metadata !"", i32 0, i32 0, i64 0, i64 0, i64 0, i32 0, null, metadata !910, i32 0, i32 0} ; [ DW_TAG_subroutine_type ]
!910 = metadata !{metadata !889, metadata !817, metadata !170}
!911 = metadata !{i32 786478, i32 0, metadata !801, metadata !"operator=", metadata !"operator=", metadata !"_ZN11ap_int_baseILi32ELb1ELb1EEaSEi", metadata !116, i32 1612, metadata !912, i1 false, i1 false, i32 0, i32 0, null, i32 256, i1 false, null, null, i32 0, metadata !128, i32 1612} ; [ DW_TAG_subprogram ]
!912 = metadata !{i32 786453, i32 0, metadata !"", i32 0, i32 0, i64 0, i64 0, i64 0, i32 0, null, metadata !913, i32 0, i32 0} ; [ DW_TAG_subroutine_type ]
!913 = metadata !{metadata !889, metadata !817, metadata !132}
!914 = metadata !{i32 786478, i32 0, metadata !801, metadata !"operator=", metadata !"operator=", metadata !"_ZN11ap_int_baseILi32ELb1ELb1EEaSEj", metadata !116, i32 1613, metadata !915, i1 false, i1 false, i32 0, i32 0, null, i32 256, i1 false, null, null, i32 0, metadata !128, i32 1613} ; [ DW_TAG_subprogram ]
!915 = metadata !{i32 786453, i32 0, metadata !"", i32 0, i32 0, i64 0, i64 0, i64 0, i32 0, null, metadata !916, i32 0, i32 0} ; [ DW_TAG_subroutine_type ]
!916 = metadata !{metadata !889, metadata !817, metadata !177}
!917 = metadata !{i32 786478, i32 0, metadata !801, metadata !"operator=", metadata !"operator=", metadata !"_ZN11ap_int_baseILi32ELb1ELb1EEaSEx", metadata !116, i32 1614, metadata !918, i1 false, i1 false, i32 0, i32 0, null, i32 256, i1 false, null, null, i32 0, metadata !128, i32 1614} ; [ DW_TAG_subprogram ]
!918 = metadata !{i32 786453, i32 0, metadata !"", i32 0, i32 0, i64 0, i64 0, i64 0, i32 0, null, metadata !919, i32 0, i32 0} ; [ DW_TAG_subroutine_type ]
!919 = metadata !{metadata !889, metadata !817, metadata !189}
!920 = metadata !{i32 786478, i32 0, metadata !801, metadata !"operator=", metadata !"operator=", metadata !"_ZN11ap_int_baseILi32ELb1ELb1EEaSEy", metadata !116, i32 1615, metadata !921, i1 false, i1 false, i32 0, i32 0, null, i32 256, i1 false, null, null, i32 0, metadata !128, i32 1615} ; [ DW_TAG_subprogram ]
!921 = metadata !{i32 786453, i32 0, metadata !"", i32 0, i32 0, i64 0, i64 0, i64 0, i32 0, null, metadata !922, i32 0, i32 0} ; [ DW_TAG_subroutine_type ]
!922 = metadata !{metadata !889, metadata !817, metadata !194}
!923 = metadata !{i32 786478, i32 0, metadata !801, metadata !"operator int", metadata !"operator int", metadata !"_ZNK11ap_int_baseILi32ELb1ELb1EEcviEv", metadata !116, i32 1653, metadata !924, i1 false, i1 false, i32 0, i32 0, null, i32 256, i1 false, null, null, i32 0, metadata !128, i32 1653} ; [ DW_TAG_subprogram ]
!924 = metadata !{i32 786453, i32 0, metadata !"", i32 0, i32 0, i64 0, i64 0, i64 0, i32 0, null, metadata !925, i32 0, i32 0} ; [ DW_TAG_subroutine_type ]
!925 = metadata !{metadata !926, metadata !931}
!926 = metadata !{i32 786454, metadata !801, metadata !"RetType", metadata !116, i32 1402, i64 0, i64 0, i64 0, i32 0, metadata !927} ; [ DW_TAG_typedef ]
!927 = metadata !{i32 786454, metadata !928, metadata !"Type", metadata !116, i32 1385, i64 0, i64 0, i64 0, i32 0, metadata !132} ; [ DW_TAG_typedef ]
!928 = metadata !{i32 786434, null, metadata !"retval<4, true>", metadata !116, i32 1384, i64 8, i64 8, i32 0, i32 0, null, metadata !267, i32 0, null, metadata !929} ; [ DW_TAG_class_type ]
!929 = metadata !{metadata !930, metadata !361}
!930 = metadata !{i32 786480, null, metadata !"_AP_N", metadata !132, i64 4, null, i32 0, i32 0} ; [ DW_TAG_template_value_parameter ]
!931 = metadata !{i32 786447, i32 0, metadata !"", i32 0, i32 0, i64 32, i64 32, i64 0, i32 64, metadata !800} ; [ DW_TAG_pointer_type ]
!932 = metadata !{i32 786478, i32 0, metadata !801, metadata !"to_bool", metadata !"to_bool", metadata !"_ZNK11ap_int_baseILi32ELb1ELb1EE7to_boolEv", metadata !116, i32 1659, metadata !933, i1 false, i1 false, i32 0, i32 0, null, i32 256, i1 false, null, null, i32 0, metadata !128, i32 1659} ; [ DW_TAG_subprogram ]
!933 = metadata !{i32 786453, i32 0, metadata !"", i32 0, i32 0, i64 0, i64 0, i64 0, i32 0, null, metadata !934, i32 0, i32 0} ; [ DW_TAG_subroutine_type ]
!934 = metadata !{metadata !108, metadata !931}
!935 = metadata !{i32 786478, i32 0, metadata !801, metadata !"to_uchar", metadata !"to_uchar", metadata !"_ZNK11ap_int_baseILi32ELb1ELb1EE8to_ucharEv", metadata !116, i32 1660, metadata !936, i1 false, i1 false, i32 0, i32 0, null, i32 256, i1 false, null, null, i32 0, metadata !128, i32 1660} ; [ DW_TAG_subprogram ]
!936 = metadata !{i32 786453, i32 0, metadata !"", i32 0, i32 0, i64 0, i64 0, i64 0, i32 0, null, metadata !937, i32 0, i32 0} ; [ DW_TAG_subroutine_type ]
!937 = metadata !{metadata !162, metadata !931}
!938 = metadata !{i32 786478, i32 0, metadata !801, metadata !"to_char", metadata !"to_char", metadata !"_ZNK11ap_int_baseILi32ELb1ELb1EE7to_charEv", metadata !116, i32 1661, metadata !939, i1 false, i1 false, i32 0, i32 0, null, i32 256, i1 false, null, null, i32 0, metadata !128, i32 1661} ; [ DW_TAG_subprogram ]
!939 = metadata !{i32 786453, i32 0, metadata !"", i32 0, i32 0, i64 0, i64 0, i64 0, i32 0, null, metadata !940, i32 0, i32 0} ; [ DW_TAG_subroutine_type ]
!940 = metadata !{metadata !158, metadata !931}
!941 = metadata !{i32 786478, i32 0, metadata !801, metadata !"to_ushort", metadata !"to_ushort", metadata !"_ZNK11ap_int_baseILi32ELb1ELb1EE9to_ushortEv", metadata !116, i32 1662, metadata !942, i1 false, i1 false, i32 0, i32 0, null, i32 256, i1 false, null, null, i32 0, metadata !128, i32 1662} ; [ DW_TAG_subprogram ]
!942 = metadata !{i32 786453, i32 0, metadata !"", i32 0, i32 0, i64 0, i64 0, i64 0, i32 0, null, metadata !943, i32 0, i32 0} ; [ DW_TAG_subroutine_type ]
!943 = metadata !{metadata !170, metadata !931}
!944 = metadata !{i32 786478, i32 0, metadata !801, metadata !"to_short", metadata !"to_short", metadata !"_ZNK11ap_int_baseILi32ELb1ELb1EE8to_shortEv", metadata !116, i32 1663, metadata !945, i1 false, i1 false, i32 0, i32 0, null, i32 256, i1 false, null, null, i32 0, metadata !128, i32 1663} ; [ DW_TAG_subprogram ]
!945 = metadata !{i32 786453, i32 0, metadata !"", i32 0, i32 0, i64 0, i64 0, i64 0, i32 0, null, metadata !946, i32 0, i32 0} ; [ DW_TAG_subroutine_type ]
!946 = metadata !{metadata !166, metadata !931}
!947 = metadata !{i32 786478, i32 0, metadata !801, metadata !"to_int", metadata !"to_int", metadata !"_ZNK11ap_int_baseILi32ELb1ELb1EE6to_intEv", metadata !116, i32 1664, metadata !948, i1 false, i1 false, i32 0, i32 0, null, i32 256, i1 false, null, null, i32 0, metadata !128, i32 1664} ; [ DW_TAG_subprogram ]
!948 = metadata !{i32 786453, i32 0, metadata !"", i32 0, i32 0, i64 0, i64 0, i64 0, i32 0, null, metadata !949, i32 0, i32 0} ; [ DW_TAG_subroutine_type ]
!949 = metadata !{metadata !132, metadata !931}
!950 = metadata !{i32 786478, i32 0, metadata !801, metadata !"to_uint", metadata !"to_uint", metadata !"_ZNK11ap_int_baseILi32ELb1ELb1EE7to_uintEv", metadata !116, i32 1665, metadata !951, i1 false, i1 false, i32 0, i32 0, null, i32 256, i1 false, null, null, i32 0, metadata !128, i32 1665} ; [ DW_TAG_subprogram ]
!951 = metadata !{i32 786453, i32 0, metadata !"", i32 0, i32 0, i64 0, i64 0, i64 0, i32 0, null, metadata !952, i32 0, i32 0} ; [ DW_TAG_subroutine_type ]
!952 = metadata !{metadata !177, metadata !931}
!953 = metadata !{i32 786478, i32 0, metadata !801, metadata !"to_long", metadata !"to_long", metadata !"_ZNK11ap_int_baseILi32ELb1ELb1EE7to_longEv", metadata !116, i32 1666, metadata !954, i1 false, i1 false, i32 0, i32 0, null, i32 256, i1 false, null, null, i32 0, metadata !128, i32 1666} ; [ DW_TAG_subprogram ]
!954 = metadata !{i32 786453, i32 0, metadata !"", i32 0, i32 0, i64 0, i64 0, i64 0, i32 0, null, metadata !955, i32 0, i32 0} ; [ DW_TAG_subroutine_type ]
!955 = metadata !{metadata !181, metadata !931}
!956 = metadata !{i32 786478, i32 0, metadata !801, metadata !"to_ulong", metadata !"to_ulong", metadata !"_ZNK11ap_int_baseILi32ELb1ELb1EE8to_ulongEv", metadata !116, i32 1667, metadata !957, i1 false, i1 false, i32 0, i32 0, null, i32 256, i1 false, null, null, i32 0, metadata !128, i32 1667} ; [ DW_TAG_subprogram ]
!957 = metadata !{i32 786453, i32 0, metadata !"", i32 0, i32 0, i64 0, i64 0, i64 0, i32 0, null, metadata !958, i32 0, i32 0} ; [ DW_TAG_subroutine_type ]
!958 = metadata !{metadata !185, metadata !931}
!959 = metadata !{i32 786478, i32 0, metadata !801, metadata !"to_int64", metadata !"to_int64", metadata !"_ZNK11ap_int_baseILi32ELb1ELb1EE8to_int64Ev", metadata !116, i32 1668, metadata !960, i1 false, i1 false, i32 0, i32 0, null, i32 256, i1 false, null, null, i32 0, metadata !128, i32 1668} ; [ DW_TAG_subprogram ]
!960 = metadata !{i32 786453, i32 0, metadata !"", i32 0, i32 0, i64 0, i64 0, i64 0, i32 0, null, metadata !961, i32 0, i32 0} ; [ DW_TAG_subroutine_type ]
!961 = metadata !{metadata !189, metadata !931}
!962 = metadata !{i32 786478, i32 0, metadata !801, metadata !"to_uint64", metadata !"to_uint64", metadata !"_ZNK11ap_int_baseILi32ELb1ELb1EE9to_uint64Ev", metadata !116, i32 1669, metadata !963, i1 false, i1 false, i32 0, i32 0, null, i32 256, i1 false, null, null, i32 0, metadata !128, i32 1669} ; [ DW_TAG_subprogram ]
!963 = metadata !{i32 786453, i32 0, metadata !"", i32 0, i32 0, i64 0, i64 0, i64 0, i32 0, null, metadata !964, i32 0, i32 0} ; [ DW_TAG_subroutine_type ]
!964 = metadata !{metadata !194, metadata !931}
!965 = metadata !{i32 786478, i32 0, metadata !801, metadata !"to_double", metadata !"to_double", metadata !"_ZNK11ap_int_baseILi32ELb1ELb1EE9to_doubleEv", metadata !116, i32 1670, metadata !966, i1 false, i1 false, i32 0, i32 0, null, i32 256, i1 false, null, null, i32 0, metadata !128, i32 1670} ; [ DW_TAG_subprogram ]
!966 = metadata !{i32 786453, i32 0, metadata !"", i32 0, i32 0, i64 0, i64 0, i64 0, i32 0, null, metadata !967, i32 0, i32 0} ; [ DW_TAG_subroutine_type ]
!967 = metadata !{metadata !203, metadata !931}
!968 = metadata !{i32 786478, i32 0, metadata !801, metadata !"length", metadata !"length", metadata !"_ZNK11ap_int_baseILi32ELb1ELb1EE6lengthEv", metadata !116, i32 1684, metadata !948, i1 false, i1 false, i32 0, i32 0, null, i32 256, i1 false, null, null, i32 0, metadata !128, i32 1684} ; [ DW_TAG_subprogram ]
!969 = metadata !{i32 786478, i32 0, metadata !801, metadata !"length", metadata !"length", metadata !"_ZNVK11ap_int_baseILi32ELb1ELb1EE6lengthEv", metadata !116, i32 1685, metadata !970, i1 false, i1 false, i32 0, i32 0, null, i32 256, i1 false, null, null, i32 0, metadata !128, i32 1685} ; [ DW_TAG_subprogram ]
!970 = metadata !{i32 786453, i32 0, metadata !"", i32 0, i32 0, i64 0, i64 0, i64 0, i32 0, null, metadata !971, i32 0, i32 0} ; [ DW_TAG_subroutine_type ]
!971 = metadata !{metadata !132, metadata !972}
!972 = metadata !{i32 786447, i32 0, metadata !"", i32 0, i32 0, i64 32, i64 32, i64 0, i32 64, metadata !828} ; [ DW_TAG_pointer_type ]
!973 = metadata !{i32 786478, i32 0, metadata !801, metadata !"reverse", metadata !"reverse", metadata !"_ZN11ap_int_baseILi32ELb1ELb1EE7reverseEv", metadata !116, i32 1690, metadata !974, i1 false, i1 false, i32 0, i32 0, null, i32 256, i1 false, null, null, i32 0, metadata !128, i32 1690} ; [ DW_TAG_subprogram ]
!974 = metadata !{i32 786453, i32 0, metadata !"", i32 0, i32 0, i64 0, i64 0, i64 0, i32 0, null, metadata !975, i32 0, i32 0} ; [ DW_TAG_subroutine_type ]
!975 = metadata !{metadata !889, metadata !817}
!976 = metadata !{i32 786478, i32 0, metadata !801, metadata !"iszero", metadata !"iszero", metadata !"_ZNK11ap_int_baseILi32ELb1ELb1EE6iszeroEv", metadata !116, i32 1696, metadata !933, i1 false, i1 false, i32 0, i32 0, null, i32 256, i1 false, null, null, i32 0, metadata !128, i32 1696} ; [ DW_TAG_subprogram ]
!977 = metadata !{i32 786478, i32 0, metadata !801, metadata !"is_zero", metadata !"is_zero", metadata !"_ZNK11ap_int_baseILi32ELb1ELb1EE7is_zeroEv", metadata !116, i32 1701, metadata !933, i1 false, i1 false, i32 0, i32 0, null, i32 256, i1 false, null, null, i32 0, metadata !128, i32 1701} ; [ DW_TAG_subprogram ]
!978 = metadata !{i32 786478, i32 0, metadata !801, metadata !"sign", metadata !"sign", metadata !"_ZNK11ap_int_baseILi32ELb1ELb1EE4signEv", metadata !116, i32 1706, metadata !933, i1 false, i1 false, i32 0, i32 0, null, i32 256, i1 false, null, null, i32 0, metadata !128, i32 1706} ; [ DW_TAG_subprogram ]
!979 = metadata !{i32 786478, i32 0, metadata !801, metadata !"clear", metadata !"clear", metadata !"_ZN11ap_int_baseILi32ELb1ELb1EE5clearEi", metadata !116, i32 1714, metadata !846, i1 false, i1 false, i32 0, i32 0, null, i32 256, i1 false, null, null, i32 0, metadata !128, i32 1714} ; [ DW_TAG_subprogram ]
!980 = metadata !{i32 786478, i32 0, metadata !801, metadata !"invert", metadata !"invert", metadata !"_ZN11ap_int_baseILi32ELb1ELb1EE6invertEi", metadata !116, i32 1720, metadata !846, i1 false, i1 false, i32 0, i32 0, null, i32 256, i1 false, null, null, i32 0, metadata !128, i32 1720} ; [ DW_TAG_subprogram ]
!981 = metadata !{i32 786478, i32 0, metadata !801, metadata !"test", metadata !"test", metadata !"_ZNK11ap_int_baseILi32ELb1ELb1EE4testEi", metadata !116, i32 1728, metadata !982, i1 false, i1 false, i32 0, i32 0, null, i32 256, i1 false, null, null, i32 0, metadata !128, i32 1728} ; [ DW_TAG_subprogram ]
!982 = metadata !{i32 786453, i32 0, metadata !"", i32 0, i32 0, i64 0, i64 0, i64 0, i32 0, null, metadata !983, i32 0, i32 0} ; [ DW_TAG_subroutine_type ]
!983 = metadata !{metadata !108, metadata !931, metadata !132}
!984 = metadata !{i32 786478, i32 0, metadata !801, metadata !"set", metadata !"set", metadata !"_ZN11ap_int_baseILi32ELb1ELb1EE3setEi", metadata !116, i32 1734, metadata !846, i1 false, i1 false, i32 0, i32 0, null, i32 256, i1 false, null, null, i32 0, metadata !128, i32 1734} ; [ DW_TAG_subprogram ]
!985 = metadata !{i32 786478, i32 0, metadata !801, metadata !"set", metadata !"set", metadata !"_ZN11ap_int_baseILi32ELb1ELb1EE3setEib", metadata !116, i32 1740, metadata !986, i1 false, i1 false, i32 0, i32 0, null, i32 256, i1 false, null, null, i32 0, metadata !128, i32 1740} ; [ DW_TAG_subprogram ]
!986 = metadata !{i32 786453, i32 0, metadata !"", i32 0, i32 0, i64 0, i64 0, i64 0, i32 0, null, metadata !987, i32 0, i32 0} ; [ DW_TAG_subroutine_type ]
!987 = metadata !{null, metadata !817, metadata !132, metadata !108}
!988 = metadata !{i32 786478, i32 0, metadata !801, metadata !"lrotate", metadata !"lrotate", metadata !"_ZN11ap_int_baseILi32ELb1ELb1EE7lrotateEi", metadata !116, i32 1747, metadata !846, i1 false, i1 false, i32 0, i32 0, null, i32 256, i1 false, null, null, i32 0, metadata !128, i32 1747} ; [ DW_TAG_subprogram ]
!989 = metadata !{i32 786478, i32 0, metadata !801, metadata !"rrotate", metadata !"rrotate", metadata !"_ZN11ap_int_baseILi32ELb1ELb1EE7rrotateEi", metadata !116, i32 1756, metadata !846, i1 false, i1 false, i32 0, i32 0, null, i32 256, i1 false, null, null, i32 0, metadata !128, i32 1756} ; [ DW_TAG_subprogram ]
!990 = metadata !{i32 786478, i32 0, metadata !801, metadata !"set_bit", metadata !"set_bit", metadata !"_ZN11ap_int_baseILi32ELb1ELb1EE7set_bitEib", metadata !116, i32 1764, metadata !986, i1 false, i1 false, i32 0, i32 0, null, i32 256, i1 false, null, null, i32 0, metadata !128, i32 1764} ; [ DW_TAG_subprogram ]
!991 = metadata !{i32 786478, i32 0, metadata !801, metadata !"get_bit", metadata !"get_bit", metadata !"_ZNK11ap_int_baseILi32ELb1ELb1EE7get_bitEi", metadata !116, i32 1769, metadata !982, i1 false, i1 false, i32 0, i32 0, null, i32 256, i1 false, null, null, i32 0, metadata !128, i32 1769} ; [ DW_TAG_subprogram ]
!992 = metadata !{i32 786478, i32 0, metadata !801, metadata !"b_not", metadata !"b_not", metadata !"_ZN11ap_int_baseILi32ELb1ELb1EE5b_notEv", metadata !116, i32 1774, metadata !815, i1 false, i1 false, i32 0, i32 0, null, i32 256, i1 false, null, null, i32 0, metadata !128, i32 1774} ; [ DW_TAG_subprogram ]
!993 = metadata !{i32 786478, i32 0, metadata !801, metadata !"countLeadingZeros", metadata !"countLeadingZeros", metadata !"_ZN11ap_int_baseILi32ELb1ELb1EE17countLeadingZerosEv", metadata !116, i32 1781, metadata !994, i1 false, i1 false, i32 0, i32 0, null, i32 256, i1 false, null, null, i32 0, metadata !128, i32 1781} ; [ DW_TAG_subprogram ]
!994 = metadata !{i32 786453, i32 0, metadata !"", i32 0, i32 0, i64 0, i64 0, i64 0, i32 0, null, metadata !995, i32 0, i32 0} ; [ DW_TAG_subroutine_type ]
!995 = metadata !{metadata !132, metadata !817}
!996 = metadata !{i32 786478, i32 0, metadata !801, metadata !"operator++", metadata !"operator++", metadata !"_ZN11ap_int_baseILi32ELb1ELb1EEppEv", metadata !116, i32 1838, metadata !974, i1 false, i1 false, i32 0, i32 0, null, i32 256, i1 false, null, null, i32 0, metadata !128, i32 1838} ; [ DW_TAG_subprogram ]
!997 = metadata !{i32 786478, i32 0, metadata !801, metadata !"operator--", metadata !"operator--", metadata !"_ZN11ap_int_baseILi32ELb1ELb1EEmmEv", metadata !116, i32 1842, metadata !974, i1 false, i1 false, i32 0, i32 0, null, i32 256, i1 false, null, null, i32 0, metadata !128, i32 1842} ; [ DW_TAG_subprogram ]
!998 = metadata !{i32 786478, i32 0, metadata !801, metadata !"operator++", metadata !"operator++", metadata !"_ZN11ap_int_baseILi32ELb1ELb1EEppEi", metadata !116, i32 1850, metadata !999, i1 false, i1 false, i32 0, i32 0, null, i32 256, i1 false, null, null, i32 0, metadata !128, i32 1850} ; [ DW_TAG_subprogram ]
!999 = metadata !{i32 786453, i32 0, metadata !"", i32 0, i32 0, i64 0, i64 0, i64 0, i32 0, null, metadata !1000, i32 0, i32 0} ; [ DW_TAG_subroutine_type ]
!1000 = metadata !{metadata !800, metadata !817, metadata !132}
!1001 = metadata !{i32 786478, i32 0, metadata !801, metadata !"operator--", metadata !"operator--", metadata !"_ZN11ap_int_baseILi32ELb1ELb1EEmmEi", metadata !116, i32 1855, metadata !999, i1 false, i1 false, i32 0, i32 0, null, i32 256, i1 false, null, null, i32 0, metadata !128, i32 1855} ; [ DW_TAG_subprogram ]
!1002 = metadata !{i32 786478, i32 0, metadata !801, metadata !"operator+", metadata !"operator+", metadata !"_ZNK11ap_int_baseILi32ELb1ELb1EEpsEv", metadata !116, i32 1864, metadata !1003, i1 false, i1 false, i32 0, i32 0, null, i32 256, i1 false, null, null, i32 0, metadata !128, i32 1864} ; [ DW_TAG_subprogram ]
!1003 = metadata !{i32 786453, i32 0, metadata !"", i32 0, i32 0, i64 0, i64 0, i64 0, i32 0, null, metadata !1004, i32 0, i32 0} ; [ DW_TAG_subroutine_type ]
!1004 = metadata !{metadata !801, metadata !931}
!1005 = metadata !{i32 786478, i32 0, metadata !801, metadata !"operator!", metadata !"operator!", metadata !"_ZNK11ap_int_baseILi32ELb1ELb1EEntEv", metadata !116, i32 1870, metadata !933, i1 false, i1 false, i32 0, i32 0, null, i32 256, i1 false, null, null, i32 0, metadata !128, i32 1870} ; [ DW_TAG_subprogram ]
!1006 = metadata !{i32 786478, i32 0, metadata !801, metadata !"operator-", metadata !"operator-", metadata !"_ZNK11ap_int_baseILi32ELb1ELb1EEngEv", metadata !116, i32 1875, metadata !1007, i1 false, i1 false, i32 0, i32 0, null, i32 256, i1 false, null, null, i32 0, metadata !128, i32 1875} ; [ DW_TAG_subprogram ]
!1007 = metadata !{i32 786453, i32 0, metadata !"", i32 0, i32 0, i64 0, i64 0, i64 0, i32 0, null, metadata !1008, i32 0, i32 0} ; [ DW_TAG_subroutine_type ]
!1008 = metadata !{metadata !1009, metadata !931}
!1009 = metadata !{i32 786434, null, metadata !"ap_int_base<33, true, true>", metadata !116, i32 1397, i64 64, i64 64, i32 0, i32 0, null, metadata !1010, i32 0, null, metadata !1293} ; [ DW_TAG_class_type ]
!1010 = metadata !{metadata !1011, metadata !1022, metadata !1026, metadata !1033, metadata !1039, metadata !1042, metadata !1045, metadata !1048, metadata !1051, metadata !1054, metadata !1057, metadata !1060, metadata !1063, metadata !1066, metadata !1069, metadata !1072, metadata !1075, metadata !1078, metadata !1081, metadata !1084, metadata !1088, metadata !1091, metadata !1094, metadata !1095, metadata !1099, metadata !1102, metadata !1105, metadata !1108, metadata !1111, metadata !1114, metadata !1117, metadata !1120, metadata !1123, metadata !1126, metadata !1129, metadata !1132, metadata !1141, metadata !1144, metadata !1147, metadata !1150, metadata !1153, metadata !1156, metadata !1159, metadata !1162, metadata !1165, metadata !1168, metadata !1171, metadata !1174, metadata !1177, metadata !1178, metadata !1182, metadata !1185, metadata !1186, metadata !1187, metadata !1188, metadata !1189, metadata !1190, metadata !1193, metadata !1194, metadata !1197, metadata !1198, metadata !1199, metadata !1200, metadata !1201, metadata !1202, metadata !1205, metadata !1206, metadata !1207, metadata !1210, metadata !1211, metadata !1214, metadata !1215, metadata !1219, metadata !1223, metadata !1224, metadata !1227, metadata !1228, metadata !1267, metadata !1268, metadata !1269, metadata !1270, metadata !1273, metadata !1274, metadata !1275, metadata !1276, metadata !1277, metadata !1278, metadata !1279, metadata !1280, metadata !1281, metadata !1282, metadata !1283, metadata !1284, metadata !1287, metadata !1290}
!1011 = metadata !{i32 786460, metadata !1009, null, metadata !116, i32 0, i64 0, i64 0, i64 0, i32 0, metadata !1012} ; [ DW_TAG_inheritance ]
!1012 = metadata !{i32 786434, null, metadata !"ssdm_int<33 + 1024 * 0, true>", metadata !120, i32 35, i64 64, i64 64, i32 0, i32 0, null, metadata !1013, i32 0, null, metadata !1020} ; [ DW_TAG_class_type ]
!1013 = metadata !{metadata !1014, metadata !1016}
!1014 = metadata !{i32 786445, metadata !1012, metadata !"V", metadata !120, i32 35, i64 33, i64 64, i64 0, i32 0, metadata !1015} ; [ DW_TAG_member ]
!1015 = metadata !{i32 786468, null, metadata !"int33", null, i32 0, i64 33, i64 64, i64 0, i32 0, i32 5} ; [ DW_TAG_base_type ]
!1016 = metadata !{i32 786478, i32 0, metadata !1012, metadata !"ssdm_int", metadata !"ssdm_int", metadata !"", metadata !120, i32 35, metadata !1017, i1 false, i1 false, i32 0, i32 0, null, i32 256, i1 false, null, null, i32 0, metadata !128, i32 35} ; [ DW_TAG_subprogram ]
!1017 = metadata !{i32 786453, i32 0, metadata !"", i32 0, i32 0, i64 0, i64 0, i64 0, i32 0, null, metadata !1018, i32 0, i32 0} ; [ DW_TAG_subroutine_type ]
!1018 = metadata !{null, metadata !1019}
!1019 = metadata !{i32 786447, i32 0, metadata !"", i32 0, i32 0, i64 32, i64 32, i64 0, i32 64, metadata !1012} ; [ DW_TAG_pointer_type ]
!1020 = metadata !{metadata !1021, metadata !361}
!1021 = metadata !{i32 786480, null, metadata !"_AP_N", metadata !132, i64 33, null, i32 0, i32 0} ; [ DW_TAG_template_value_parameter ]
!1022 = metadata !{i32 786478, i32 0, metadata !1009, metadata !"ap_int_base", metadata !"ap_int_base", metadata !"", metadata !116, i32 1438, metadata !1023, i1 false, i1 false, i32 0, i32 0, null, i32 256, i1 false, null, null, i32 0, metadata !128, i32 1438} ; [ DW_TAG_subprogram ]
!1023 = metadata !{i32 786453, i32 0, metadata !"", i32 0, i32 0, i64 0, i64 0, i64 0, i32 0, null, metadata !1024, i32 0, i32 0} ; [ DW_TAG_subroutine_type ]
!1024 = metadata !{null, metadata !1025}
!1025 = metadata !{i32 786447, i32 0, metadata !"", i32 0, i32 0, i64 32, i64 32, i64 0, i32 64, metadata !1009} ; [ DW_TAG_pointer_type ]
!1026 = metadata !{i32 786478, i32 0, metadata !1009, metadata !"ap_int_base<33, true>", metadata !"ap_int_base<33, true>", metadata !"", metadata !116, i32 1450, metadata !1027, i1 false, i1 false, i32 0, i32 0, null, i32 256, i1 false, null, metadata !1031, i32 0, metadata !128, i32 1450} ; [ DW_TAG_subprogram ]
!1027 = metadata !{i32 786453, i32 0, metadata !"", i32 0, i32 0, i64 0, i64 0, i64 0, i32 0, null, metadata !1028, i32 0, i32 0} ; [ DW_TAG_subroutine_type ]
!1028 = metadata !{null, metadata !1025, metadata !1029}
!1029 = metadata !{i32 786448, null, null, null, i32 0, i64 0, i64 0, i64 0, i32 0, metadata !1030} ; [ DW_TAG_reference_type ]
!1030 = metadata !{i32 786470, null, metadata !"", null, i32 0, i64 0, i64 0, i64 0, i32 0, metadata !1009} ; [ DW_TAG_const_type ]
!1031 = metadata !{metadata !1032, metadata !823}
!1032 = metadata !{i32 786480, null, metadata !"_AP_W2", metadata !132, i64 33, null, i32 0, i32 0} ; [ DW_TAG_template_value_parameter ]
!1033 = metadata !{i32 786478, i32 0, metadata !1009, metadata !"ap_int_base<33, true>", metadata !"ap_int_base<33, true>", metadata !"", metadata !116, i32 1453, metadata !1034, i1 false, i1 false, i32 0, i32 0, null, i32 256, i1 false, null, metadata !1031, i32 0, metadata !128, i32 1453} ; [ DW_TAG_subprogram ]
!1034 = metadata !{i32 786453, i32 0, metadata !"", i32 0, i32 0, i64 0, i64 0, i64 0, i32 0, null, metadata !1035, i32 0, i32 0} ; [ DW_TAG_subroutine_type ]
!1035 = metadata !{null, metadata !1025, metadata !1036}
!1036 = metadata !{i32 786448, null, null, null, i32 0, i64 0, i64 0, i64 0, i32 0, metadata !1037} ; [ DW_TAG_reference_type ]
!1037 = metadata !{i32 786470, null, metadata !"", null, i32 0, i64 0, i64 0, i64 0, i32 0, metadata !1038} ; [ DW_TAG_const_type ]
!1038 = metadata !{i32 786485, null, metadata !"", null, i32 0, i64 0, i64 0, i64 0, i32 0, metadata !1009} ; [ DW_TAG_volatile_type ]
!1039 = metadata !{i32 786478, i32 0, metadata !1009, metadata !"ap_int_base", metadata !"ap_int_base", metadata !"", metadata !116, i32 1460, metadata !1040, i1 false, i1 false, i32 0, i32 0, null, i32 384, i1 false, null, null, i32 0, metadata !128, i32 1460} ; [ DW_TAG_subprogram ]
!1040 = metadata !{i32 786453, i32 0, metadata !"", i32 0, i32 0, i64 0, i64 0, i64 0, i32 0, null, metadata !1041, i32 0, i32 0} ; [ DW_TAG_subroutine_type ]
!1041 = metadata !{null, metadata !1025, metadata !108}
!1042 = metadata !{i32 786478, i32 0, metadata !1009, metadata !"ap_int_base", metadata !"ap_int_base", metadata !"", metadata !116, i32 1461, metadata !1043, i1 false, i1 false, i32 0, i32 0, null, i32 384, i1 false, null, null, i32 0, metadata !128, i32 1461} ; [ DW_TAG_subprogram ]
!1043 = metadata !{i32 786453, i32 0, metadata !"", i32 0, i32 0, i64 0, i64 0, i64 0, i32 0, null, metadata !1044, i32 0, i32 0} ; [ DW_TAG_subroutine_type ]
!1044 = metadata !{null, metadata !1025, metadata !158}
!1045 = metadata !{i32 786478, i32 0, metadata !1009, metadata !"ap_int_base", metadata !"ap_int_base", metadata !"", metadata !116, i32 1462, metadata !1046, i1 false, i1 false, i32 0, i32 0, null, i32 384, i1 false, null, null, i32 0, metadata !128, i32 1462} ; [ DW_TAG_subprogram ]
!1046 = metadata !{i32 786453, i32 0, metadata !"", i32 0, i32 0, i64 0, i64 0, i64 0, i32 0, null, metadata !1047, i32 0, i32 0} ; [ DW_TAG_subroutine_type ]
!1047 = metadata !{null, metadata !1025, metadata !162}
!1048 = metadata !{i32 786478, i32 0, metadata !1009, metadata !"ap_int_base", metadata !"ap_int_base", metadata !"", metadata !116, i32 1463, metadata !1049, i1 false, i1 false, i32 0, i32 0, null, i32 384, i1 false, null, null, i32 0, metadata !128, i32 1463} ; [ DW_TAG_subprogram ]
!1049 = metadata !{i32 786453, i32 0, metadata !"", i32 0, i32 0, i64 0, i64 0, i64 0, i32 0, null, metadata !1050, i32 0, i32 0} ; [ DW_TAG_subroutine_type ]
!1050 = metadata !{null, metadata !1025, metadata !166}
!1051 = metadata !{i32 786478, i32 0, metadata !1009, metadata !"ap_int_base", metadata !"ap_int_base", metadata !"", metadata !116, i32 1464, metadata !1052, i1 false, i1 false, i32 0, i32 0, null, i32 384, i1 false, null, null, i32 0, metadata !128, i32 1464} ; [ DW_TAG_subprogram ]
!1052 = metadata !{i32 786453, i32 0, metadata !"", i32 0, i32 0, i64 0, i64 0, i64 0, i32 0, null, metadata !1053, i32 0, i32 0} ; [ DW_TAG_subroutine_type ]
!1053 = metadata !{null, metadata !1025, metadata !170}
!1054 = metadata !{i32 786478, i32 0, metadata !1009, metadata !"ap_int_base", metadata !"ap_int_base", metadata !"", metadata !116, i32 1465, metadata !1055, i1 false, i1 false, i32 0, i32 0, null, i32 384, i1 false, null, null, i32 0, metadata !128, i32 1465} ; [ DW_TAG_subprogram ]
!1055 = metadata !{i32 786453, i32 0, metadata !"", i32 0, i32 0, i64 0, i64 0, i64 0, i32 0, null, metadata !1056, i32 0, i32 0} ; [ DW_TAG_subroutine_type ]
!1056 = metadata !{null, metadata !1025, metadata !132}
!1057 = metadata !{i32 786478, i32 0, metadata !1009, metadata !"ap_int_base", metadata !"ap_int_base", metadata !"", metadata !116, i32 1466, metadata !1058, i1 false, i1 false, i32 0, i32 0, null, i32 384, i1 false, null, null, i32 0, metadata !128, i32 1466} ; [ DW_TAG_subprogram ]
!1058 = metadata !{i32 786453, i32 0, metadata !"", i32 0, i32 0, i64 0, i64 0, i64 0, i32 0, null, metadata !1059, i32 0, i32 0} ; [ DW_TAG_subroutine_type ]
!1059 = metadata !{null, metadata !1025, metadata !177}
!1060 = metadata !{i32 786478, i32 0, metadata !1009, metadata !"ap_int_base", metadata !"ap_int_base", metadata !"", metadata !116, i32 1467, metadata !1061, i1 false, i1 false, i32 0, i32 0, null, i32 384, i1 false, null, null, i32 0, metadata !128, i32 1467} ; [ DW_TAG_subprogram ]
!1061 = metadata !{i32 786453, i32 0, metadata !"", i32 0, i32 0, i64 0, i64 0, i64 0, i32 0, null, metadata !1062, i32 0, i32 0} ; [ DW_TAG_subroutine_type ]
!1062 = metadata !{null, metadata !1025, metadata !181}
!1063 = metadata !{i32 786478, i32 0, metadata !1009, metadata !"ap_int_base", metadata !"ap_int_base", metadata !"", metadata !116, i32 1468, metadata !1064, i1 false, i1 false, i32 0, i32 0, null, i32 384, i1 false, null, null, i32 0, metadata !128, i32 1468} ; [ DW_TAG_subprogram ]
!1064 = metadata !{i32 786453, i32 0, metadata !"", i32 0, i32 0, i64 0, i64 0, i64 0, i32 0, null, metadata !1065, i32 0, i32 0} ; [ DW_TAG_subroutine_type ]
!1065 = metadata !{null, metadata !1025, metadata !185}
!1066 = metadata !{i32 786478, i32 0, metadata !1009, metadata !"ap_int_base", metadata !"ap_int_base", metadata !"", metadata !116, i32 1469, metadata !1067, i1 false, i1 false, i32 0, i32 0, null, i32 384, i1 false, null, null, i32 0, metadata !128, i32 1469} ; [ DW_TAG_subprogram ]
!1067 = metadata !{i32 786453, i32 0, metadata !"", i32 0, i32 0, i64 0, i64 0, i64 0, i32 0, null, metadata !1068, i32 0, i32 0} ; [ DW_TAG_subroutine_type ]
!1068 = metadata !{null, metadata !1025, metadata !189}
!1069 = metadata !{i32 786478, i32 0, metadata !1009, metadata !"ap_int_base", metadata !"ap_int_base", metadata !"", metadata !116, i32 1470, metadata !1070, i1 false, i1 false, i32 0, i32 0, null, i32 384, i1 false, null, null, i32 0, metadata !128, i32 1470} ; [ DW_TAG_subprogram ]
!1070 = metadata !{i32 786453, i32 0, metadata !"", i32 0, i32 0, i64 0, i64 0, i64 0, i32 0, null, metadata !1071, i32 0, i32 0} ; [ DW_TAG_subroutine_type ]
!1071 = metadata !{null, metadata !1025, metadata !194}
!1072 = metadata !{i32 786478, i32 0, metadata !1009, metadata !"ap_int_base", metadata !"ap_int_base", metadata !"", metadata !116, i32 1471, metadata !1073, i1 false, i1 false, i32 0, i32 0, null, i32 384, i1 false, null, null, i32 0, metadata !128, i32 1471} ; [ DW_TAG_subprogram ]
!1073 = metadata !{i32 786453, i32 0, metadata !"", i32 0, i32 0, i64 0, i64 0, i64 0, i32 0, null, metadata !1074, i32 0, i32 0} ; [ DW_TAG_subroutine_type ]
!1074 = metadata !{null, metadata !1025, metadata !199}
!1075 = metadata !{i32 786478, i32 0, metadata !1009, metadata !"ap_int_base", metadata !"ap_int_base", metadata !"", metadata !116, i32 1472, metadata !1076, i1 false, i1 false, i32 0, i32 0, null, i32 384, i1 false, null, null, i32 0, metadata !128, i32 1472} ; [ DW_TAG_subprogram ]
!1076 = metadata !{i32 786453, i32 0, metadata !"", i32 0, i32 0, i64 0, i64 0, i64 0, i32 0, null, metadata !1077, i32 0, i32 0} ; [ DW_TAG_subroutine_type ]
!1077 = metadata !{null, metadata !1025, metadata !203}
!1078 = metadata !{i32 786478, i32 0, metadata !1009, metadata !"ap_int_base", metadata !"ap_int_base", metadata !"", metadata !116, i32 1499, metadata !1079, i1 false, i1 false, i32 0, i32 0, null, i32 256, i1 false, null, null, i32 0, metadata !128, i32 1499} ; [ DW_TAG_subprogram ]
!1079 = metadata !{i32 786453, i32 0, metadata !"", i32 0, i32 0, i64 0, i64 0, i64 0, i32 0, null, metadata !1080, i32 0, i32 0} ; [ DW_TAG_subroutine_type ]
!1080 = metadata !{null, metadata !1025, metadata !207}
!1081 = metadata !{i32 786478, i32 0, metadata !1009, metadata !"ap_int_base", metadata !"ap_int_base", metadata !"", metadata !116, i32 1506, metadata !1082, i1 false, i1 false, i32 0, i32 0, null, i32 256, i1 false, null, null, i32 0, metadata !128, i32 1506} ; [ DW_TAG_subprogram ]
!1082 = metadata !{i32 786453, i32 0, metadata !"", i32 0, i32 0, i64 0, i64 0, i64 0, i32 0, null, metadata !1083, i32 0, i32 0} ; [ DW_TAG_subroutine_type ]
!1083 = metadata !{null, metadata !1025, metadata !207, metadata !158}
!1084 = metadata !{i32 786478, i32 0, metadata !1009, metadata !"read", metadata !"read", metadata !"_ZNV11ap_int_baseILi33ELb1ELb1EE4readEv", metadata !116, i32 1527, metadata !1085, i1 false, i1 false, i32 0, i32 0, null, i32 256, i1 false, null, null, i32 0, metadata !128, i32 1527} ; [ DW_TAG_subprogram ]
!1085 = metadata !{i32 786453, i32 0, metadata !"", i32 0, i32 0, i64 0, i64 0, i64 0, i32 0, null, metadata !1086, i32 0, i32 0} ; [ DW_TAG_subroutine_type ]
!1086 = metadata !{metadata !1009, metadata !1087}
!1087 = metadata !{i32 786447, i32 0, metadata !"", i32 0, i32 0, i64 32, i64 32, i64 0, i32 64, metadata !1038} ; [ DW_TAG_pointer_type ]
!1088 = metadata !{i32 786478, i32 0, metadata !1009, metadata !"write", metadata !"write", metadata !"_ZNV11ap_int_baseILi33ELb1ELb1EE5writeERKS0_", metadata !116, i32 1533, metadata !1089, i1 false, i1 false, i32 0, i32 0, null, i32 256, i1 false, null, null, i32 0, metadata !128, i32 1533} ; [ DW_TAG_subprogram ]
!1089 = metadata !{i32 786453, i32 0, metadata !"", i32 0, i32 0, i64 0, i64 0, i64 0, i32 0, null, metadata !1090, i32 0, i32 0} ; [ DW_TAG_subroutine_type ]
!1090 = metadata !{null, metadata !1087, metadata !1029}
!1091 = metadata !{i32 786478, i32 0, metadata !1009, metadata !"operator=", metadata !"operator=", metadata !"_ZNV11ap_int_baseILi33ELb1ELb1EEaSERVKS0_", metadata !116, i32 1545, metadata !1092, i1 false, i1 false, i32 0, i32 0, null, i32 256, i1 false, null, null, i32 0, metadata !128, i32 1545} ; [ DW_TAG_subprogram ]
!1092 = metadata !{i32 786453, i32 0, metadata !"", i32 0, i32 0, i64 0, i64 0, i64 0, i32 0, null, metadata !1093, i32 0, i32 0} ; [ DW_TAG_subroutine_type ]
!1093 = metadata !{null, metadata !1087, metadata !1036}
!1094 = metadata !{i32 786478, i32 0, metadata !1009, metadata !"operator=", metadata !"operator=", metadata !"_ZNV11ap_int_baseILi33ELb1ELb1EEaSERKS0_", metadata !116, i32 1554, metadata !1089, i1 false, i1 false, i32 0, i32 0, null, i32 256, i1 false, null, null, i32 0, metadata !128, i32 1554} ; [ DW_TAG_subprogram ]
!1095 = metadata !{i32 786478, i32 0, metadata !1009, metadata !"operator=", metadata !"operator=", metadata !"_ZN11ap_int_baseILi33ELb1ELb1EEaSERVKS0_", metadata !116, i32 1577, metadata !1096, i1 false, i1 false, i32 0, i32 0, null, i32 256, i1 false, null, null, i32 0, metadata !128, i32 1577} ; [ DW_TAG_subprogram ]
!1096 = metadata !{i32 786453, i32 0, metadata !"", i32 0, i32 0, i64 0, i64 0, i64 0, i32 0, null, metadata !1097, i32 0, i32 0} ; [ DW_TAG_subroutine_type ]
!1097 = metadata !{metadata !1098, metadata !1025, metadata !1036}
!1098 = metadata !{i32 786448, null, null, null, i32 0, i64 0, i64 0, i64 0, i32 0, metadata !1009} ; [ DW_TAG_reference_type ]
!1099 = metadata !{i32 786478, i32 0, metadata !1009, metadata !"operator=", metadata !"operator=", metadata !"_ZN11ap_int_baseILi33ELb1ELb1EEaSERKS0_", metadata !116, i32 1582, metadata !1100, i1 false, i1 false, i32 0, i32 0, null, i32 256, i1 false, null, null, i32 0, metadata !128, i32 1582} ; [ DW_TAG_subprogram ]
!1100 = metadata !{i32 786453, i32 0, metadata !"", i32 0, i32 0, i64 0, i64 0, i64 0, i32 0, null, metadata !1101, i32 0, i32 0} ; [ DW_TAG_subroutine_type ]
!1101 = metadata !{metadata !1098, metadata !1025, metadata !1029}
!1102 = metadata !{i32 786478, i32 0, metadata !1009, metadata !"operator=", metadata !"operator=", metadata !"_ZN11ap_int_baseILi33ELb1ELb1EEaSEPKc", metadata !116, i32 1586, metadata !1103, i1 false, i1 false, i32 0, i32 0, null, i32 256, i1 false, null, null, i32 0, metadata !128, i32 1586} ; [ DW_TAG_subprogram ]
!1103 = metadata !{i32 786453, i32 0, metadata !"", i32 0, i32 0, i64 0, i64 0, i64 0, i32 0, null, metadata !1104, i32 0, i32 0} ; [ DW_TAG_subroutine_type ]
!1104 = metadata !{metadata !1098, metadata !1025, metadata !207}
!1105 = metadata !{i32 786478, i32 0, metadata !1009, metadata !"set", metadata !"set", metadata !"_ZN11ap_int_baseILi33ELb1ELb1EE3setEPKca", metadata !116, i32 1594, metadata !1106, i1 false, i1 false, i32 0, i32 0, null, i32 256, i1 false, null, null, i32 0, metadata !128, i32 1594} ; [ DW_TAG_subprogram ]
!1106 = metadata !{i32 786453, i32 0, metadata !"", i32 0, i32 0, i64 0, i64 0, i64 0, i32 0, null, metadata !1107, i32 0, i32 0} ; [ DW_TAG_subroutine_type ]
!1107 = metadata !{metadata !1098, metadata !1025, metadata !207, metadata !158}
!1108 = metadata !{i32 786478, i32 0, metadata !1009, metadata !"operator=", metadata !"operator=", metadata !"_ZN11ap_int_baseILi33ELb1ELb1EEaSEa", metadata !116, i32 1608, metadata !1109, i1 false, i1 false, i32 0, i32 0, null, i32 256, i1 false, null, null, i32 0, metadata !128, i32 1608} ; [ DW_TAG_subprogram ]
!1109 = metadata !{i32 786453, i32 0, metadata !"", i32 0, i32 0, i64 0, i64 0, i64 0, i32 0, null, metadata !1110, i32 0, i32 0} ; [ DW_TAG_subroutine_type ]
!1110 = metadata !{metadata !1098, metadata !1025, metadata !158}
!1111 = metadata !{i32 786478, i32 0, metadata !1009, metadata !"operator=", metadata !"operator=", metadata !"_ZN11ap_int_baseILi33ELb1ELb1EEaSEh", metadata !116, i32 1609, metadata !1112, i1 false, i1 false, i32 0, i32 0, null, i32 256, i1 false, null, null, i32 0, metadata !128, i32 1609} ; [ DW_TAG_subprogram ]
!1112 = metadata !{i32 786453, i32 0, metadata !"", i32 0, i32 0, i64 0, i64 0, i64 0, i32 0, null, metadata !1113, i32 0, i32 0} ; [ DW_TAG_subroutine_type ]
!1113 = metadata !{metadata !1098, metadata !1025, metadata !162}
!1114 = metadata !{i32 786478, i32 0, metadata !1009, metadata !"operator=", metadata !"operator=", metadata !"_ZN11ap_int_baseILi33ELb1ELb1EEaSEs", metadata !116, i32 1610, metadata !1115, i1 false, i1 false, i32 0, i32 0, null, i32 256, i1 false, null, null, i32 0, metadata !128, i32 1610} ; [ DW_TAG_subprogram ]
!1115 = metadata !{i32 786453, i32 0, metadata !"", i32 0, i32 0, i64 0, i64 0, i64 0, i32 0, null, metadata !1116, i32 0, i32 0} ; [ DW_TAG_subroutine_type ]
!1116 = metadata !{metadata !1098, metadata !1025, metadata !166}
!1117 = metadata !{i32 786478, i32 0, metadata !1009, metadata !"operator=", metadata !"operator=", metadata !"_ZN11ap_int_baseILi33ELb1ELb1EEaSEt", metadata !116, i32 1611, metadata !1118, i1 false, i1 false, i32 0, i32 0, null, i32 256, i1 false, null, null, i32 0, metadata !128, i32 1611} ; [ DW_TAG_subprogram ]
!1118 = metadata !{i32 786453, i32 0, metadata !"", i32 0, i32 0, i64 0, i64 0, i64 0, i32 0, null, metadata !1119, i32 0, i32 0} ; [ DW_TAG_subroutine_type ]
!1119 = metadata !{metadata !1098, metadata !1025, metadata !170}
!1120 = metadata !{i32 786478, i32 0, metadata !1009, metadata !"operator=", metadata !"operator=", metadata !"_ZN11ap_int_baseILi33ELb1ELb1EEaSEi", metadata !116, i32 1612, metadata !1121, i1 false, i1 false, i32 0, i32 0, null, i32 256, i1 false, null, null, i32 0, metadata !128, i32 1612} ; [ DW_TAG_subprogram ]
!1121 = metadata !{i32 786453, i32 0, metadata !"", i32 0, i32 0, i64 0, i64 0, i64 0, i32 0, null, metadata !1122, i32 0, i32 0} ; [ DW_TAG_subroutine_type ]
!1122 = metadata !{metadata !1098, metadata !1025, metadata !132}
!1123 = metadata !{i32 786478, i32 0, metadata !1009, metadata !"operator=", metadata !"operator=", metadata !"_ZN11ap_int_baseILi33ELb1ELb1EEaSEj", metadata !116, i32 1613, metadata !1124, i1 false, i1 false, i32 0, i32 0, null, i32 256, i1 false, null, null, i32 0, metadata !128, i32 1613} ; [ DW_TAG_subprogram ]
!1124 = metadata !{i32 786453, i32 0, metadata !"", i32 0, i32 0, i64 0, i64 0, i64 0, i32 0, null, metadata !1125, i32 0, i32 0} ; [ DW_TAG_subroutine_type ]
!1125 = metadata !{metadata !1098, metadata !1025, metadata !177}
!1126 = metadata !{i32 786478, i32 0, metadata !1009, metadata !"operator=", metadata !"operator=", metadata !"_ZN11ap_int_baseILi33ELb1ELb1EEaSEx", metadata !116, i32 1614, metadata !1127, i1 false, i1 false, i32 0, i32 0, null, i32 256, i1 false, null, null, i32 0, metadata !128, i32 1614} ; [ DW_TAG_subprogram ]
!1127 = metadata !{i32 786453, i32 0, metadata !"", i32 0, i32 0, i64 0, i64 0, i64 0, i32 0, null, metadata !1128, i32 0, i32 0} ; [ DW_TAG_subroutine_type ]
!1128 = metadata !{metadata !1098, metadata !1025, metadata !189}
!1129 = metadata !{i32 786478, i32 0, metadata !1009, metadata !"operator=", metadata !"operator=", metadata !"_ZN11ap_int_baseILi33ELb1ELb1EEaSEy", metadata !116, i32 1615, metadata !1130, i1 false, i1 false, i32 0, i32 0, null, i32 256, i1 false, null, null, i32 0, metadata !128, i32 1615} ; [ DW_TAG_subprogram ]
!1130 = metadata !{i32 786453, i32 0, metadata !"", i32 0, i32 0, i64 0, i64 0, i64 0, i32 0, null, metadata !1131, i32 0, i32 0} ; [ DW_TAG_subroutine_type ]
!1131 = metadata !{metadata !1098, metadata !1025, metadata !194}
!1132 = metadata !{i32 786478, i32 0, metadata !1009, metadata !"operator long long", metadata !"operator long long", metadata !"_ZNK11ap_int_baseILi33ELb1ELb1EEcvxEv", metadata !116, i32 1653, metadata !1133, i1 false, i1 false, i32 0, i32 0, null, i32 256, i1 false, null, null, i32 0, metadata !128, i32 1653} ; [ DW_TAG_subprogram ]
!1133 = metadata !{i32 786453, i32 0, metadata !"", i32 0, i32 0, i64 0, i64 0, i64 0, i32 0, null, metadata !1134, i32 0, i32 0} ; [ DW_TAG_subroutine_type ]
!1134 = metadata !{metadata !1135, metadata !1140}
!1135 = metadata !{i32 786454, metadata !1009, metadata !"RetType", metadata !116, i32 1402, i64 0, i64 0, i64 0, i32 0, metadata !1136} ; [ DW_TAG_typedef ]
!1136 = metadata !{i32 786454, metadata !1137, metadata !"Type", metadata !116, i32 1359, i64 0, i64 0, i64 0, i32 0, metadata !189} ; [ DW_TAG_typedef ]
!1137 = metadata !{i32 786434, null, metadata !"retval<5, true>", metadata !116, i32 1358, i64 8, i64 8, i32 0, i32 0, null, metadata !267, i32 0, null, metadata !1138} ; [ DW_TAG_class_type ]
!1138 = metadata !{metadata !1139, metadata !361}
!1139 = metadata !{i32 786480, null, metadata !"_AP_N", metadata !132, i64 5, null, i32 0, i32 0} ; [ DW_TAG_template_value_parameter ]
!1140 = metadata !{i32 786447, i32 0, metadata !"", i32 0, i32 0, i64 32, i64 32, i64 0, i32 64, metadata !1030} ; [ DW_TAG_pointer_type ]
!1141 = metadata !{i32 786478, i32 0, metadata !1009, metadata !"to_bool", metadata !"to_bool", metadata !"_ZNK11ap_int_baseILi33ELb1ELb1EE7to_boolEv", metadata !116, i32 1659, metadata !1142, i1 false, i1 false, i32 0, i32 0, null, i32 256, i1 false, null, null, i32 0, metadata !128, i32 1659} ; [ DW_TAG_subprogram ]
!1142 = metadata !{i32 786453, i32 0, metadata !"", i32 0, i32 0, i64 0, i64 0, i64 0, i32 0, null, metadata !1143, i32 0, i32 0} ; [ DW_TAG_subroutine_type ]
!1143 = metadata !{metadata !108, metadata !1140}
!1144 = metadata !{i32 786478, i32 0, metadata !1009, metadata !"to_uchar", metadata !"to_uchar", metadata !"_ZNK11ap_int_baseILi33ELb1ELb1EE8to_ucharEv", metadata !116, i32 1660, metadata !1145, i1 false, i1 false, i32 0, i32 0, null, i32 256, i1 false, null, null, i32 0, metadata !128, i32 1660} ; [ DW_TAG_subprogram ]
!1145 = metadata !{i32 786453, i32 0, metadata !"", i32 0, i32 0, i64 0, i64 0, i64 0, i32 0, null, metadata !1146, i32 0, i32 0} ; [ DW_TAG_subroutine_type ]
!1146 = metadata !{metadata !162, metadata !1140}
!1147 = metadata !{i32 786478, i32 0, metadata !1009, metadata !"to_char", metadata !"to_char", metadata !"_ZNK11ap_int_baseILi33ELb1ELb1EE7to_charEv", metadata !116, i32 1661, metadata !1148, i1 false, i1 false, i32 0, i32 0, null, i32 256, i1 false, null, null, i32 0, metadata !128, i32 1661} ; [ DW_TAG_subprogram ]
!1148 = metadata !{i32 786453, i32 0, metadata !"", i32 0, i32 0, i64 0, i64 0, i64 0, i32 0, null, metadata !1149, i32 0, i32 0} ; [ DW_TAG_subroutine_type ]
!1149 = metadata !{metadata !158, metadata !1140}
!1150 = metadata !{i32 786478, i32 0, metadata !1009, metadata !"to_ushort", metadata !"to_ushort", metadata !"_ZNK11ap_int_baseILi33ELb1ELb1EE9to_ushortEv", metadata !116, i32 1662, metadata !1151, i1 false, i1 false, i32 0, i32 0, null, i32 256, i1 false, null, null, i32 0, metadata !128, i32 1662} ; [ DW_TAG_subprogram ]
!1151 = metadata !{i32 786453, i32 0, metadata !"", i32 0, i32 0, i64 0, i64 0, i64 0, i32 0, null, metadata !1152, i32 0, i32 0} ; [ DW_TAG_subroutine_type ]
!1152 = metadata !{metadata !170, metadata !1140}
!1153 = metadata !{i32 786478, i32 0, metadata !1009, metadata !"to_short", metadata !"to_short", metadata !"_ZNK11ap_int_baseILi33ELb1ELb1EE8to_shortEv", metadata !116, i32 1663, metadata !1154, i1 false, i1 false, i32 0, i32 0, null, i32 256, i1 false, null, null, i32 0, metadata !128, i32 1663} ; [ DW_TAG_subprogram ]
!1154 = metadata !{i32 786453, i32 0, metadata !"", i32 0, i32 0, i64 0, i64 0, i64 0, i32 0, null, metadata !1155, i32 0, i32 0} ; [ DW_TAG_subroutine_type ]
!1155 = metadata !{metadata !166, metadata !1140}
!1156 = metadata !{i32 786478, i32 0, metadata !1009, metadata !"to_int", metadata !"to_int", metadata !"_ZNK11ap_int_baseILi33ELb1ELb1EE6to_intEv", metadata !116, i32 1664, metadata !1157, i1 false, i1 false, i32 0, i32 0, null, i32 256, i1 false, null, null, i32 0, metadata !128, i32 1664} ; [ DW_TAG_subprogram ]
!1157 = metadata !{i32 786453, i32 0, metadata !"", i32 0, i32 0, i64 0, i64 0, i64 0, i32 0, null, metadata !1158, i32 0, i32 0} ; [ DW_TAG_subroutine_type ]
!1158 = metadata !{metadata !132, metadata !1140}
!1159 = metadata !{i32 786478, i32 0, metadata !1009, metadata !"to_uint", metadata !"to_uint", metadata !"_ZNK11ap_int_baseILi33ELb1ELb1EE7to_uintEv", metadata !116, i32 1665, metadata !1160, i1 false, i1 false, i32 0, i32 0, null, i32 256, i1 false, null, null, i32 0, metadata !128, i32 1665} ; [ DW_TAG_subprogram ]
!1160 = metadata !{i32 786453, i32 0, metadata !"", i32 0, i32 0, i64 0, i64 0, i64 0, i32 0, null, metadata !1161, i32 0, i32 0} ; [ DW_TAG_subroutine_type ]
!1161 = metadata !{metadata !177, metadata !1140}
!1162 = metadata !{i32 786478, i32 0, metadata !1009, metadata !"to_long", metadata !"to_long", metadata !"_ZNK11ap_int_baseILi33ELb1ELb1EE7to_longEv", metadata !116, i32 1666, metadata !1163, i1 false, i1 false, i32 0, i32 0, null, i32 256, i1 false, null, null, i32 0, metadata !128, i32 1666} ; [ DW_TAG_subprogram ]
!1163 = metadata !{i32 786453, i32 0, metadata !"", i32 0, i32 0, i64 0, i64 0, i64 0, i32 0, null, metadata !1164, i32 0, i32 0} ; [ DW_TAG_subroutine_type ]
!1164 = metadata !{metadata !181, metadata !1140}
!1165 = metadata !{i32 786478, i32 0, metadata !1009, metadata !"to_ulong", metadata !"to_ulong", metadata !"_ZNK11ap_int_baseILi33ELb1ELb1EE8to_ulongEv", metadata !116, i32 1667, metadata !1166, i1 false, i1 false, i32 0, i32 0, null, i32 256, i1 false, null, null, i32 0, metadata !128, i32 1667} ; [ DW_TAG_subprogram ]
!1166 = metadata !{i32 786453, i32 0, metadata !"", i32 0, i32 0, i64 0, i64 0, i64 0, i32 0, null, metadata !1167, i32 0, i32 0} ; [ DW_TAG_subroutine_type ]
!1167 = metadata !{metadata !185, metadata !1140}
!1168 = metadata !{i32 786478, i32 0, metadata !1009, metadata !"to_int64", metadata !"to_int64", metadata !"_ZNK11ap_int_baseILi33ELb1ELb1EE8to_int64Ev", metadata !116, i32 1668, metadata !1169, i1 false, i1 false, i32 0, i32 0, null, i32 256, i1 false, null, null, i32 0, metadata !128, i32 1668} ; [ DW_TAG_subprogram ]
!1169 = metadata !{i32 786453, i32 0, metadata !"", i32 0, i32 0, i64 0, i64 0, i64 0, i32 0, null, metadata !1170, i32 0, i32 0} ; [ DW_TAG_subroutine_type ]
!1170 = metadata !{metadata !189, metadata !1140}
!1171 = metadata !{i32 786478, i32 0, metadata !1009, metadata !"to_uint64", metadata !"to_uint64", metadata !"_ZNK11ap_int_baseILi33ELb1ELb1EE9to_uint64Ev", metadata !116, i32 1669, metadata !1172, i1 false, i1 false, i32 0, i32 0, null, i32 256, i1 false, null, null, i32 0, metadata !128, i32 1669} ; [ DW_TAG_subprogram ]
!1172 = metadata !{i32 786453, i32 0, metadata !"", i32 0, i32 0, i64 0, i64 0, i64 0, i32 0, null, metadata !1173, i32 0, i32 0} ; [ DW_TAG_subroutine_type ]
!1173 = metadata !{metadata !194, metadata !1140}
!1174 = metadata !{i32 786478, i32 0, metadata !1009, metadata !"to_double", metadata !"to_double", metadata !"_ZNK11ap_int_baseILi33ELb1ELb1EE9to_doubleEv", metadata !116, i32 1670, metadata !1175, i1 false, i1 false, i32 0, i32 0, null, i32 256, i1 false, null, null, i32 0, metadata !128, i32 1670} ; [ DW_TAG_subprogram ]
!1175 = metadata !{i32 786453, i32 0, metadata !"", i32 0, i32 0, i64 0, i64 0, i64 0, i32 0, null, metadata !1176, i32 0, i32 0} ; [ DW_TAG_subroutine_type ]
!1176 = metadata !{metadata !203, metadata !1140}
!1177 = metadata !{i32 786478, i32 0, metadata !1009, metadata !"length", metadata !"length", metadata !"_ZNK11ap_int_baseILi33ELb1ELb1EE6lengthEv", metadata !116, i32 1684, metadata !1157, i1 false, i1 false, i32 0, i32 0, null, i32 256, i1 false, null, null, i32 0, metadata !128, i32 1684} ; [ DW_TAG_subprogram ]
!1178 = metadata !{i32 786478, i32 0, metadata !1009, metadata !"length", metadata !"length", metadata !"_ZNVK11ap_int_baseILi33ELb1ELb1EE6lengthEv", metadata !116, i32 1685, metadata !1179, i1 false, i1 false, i32 0, i32 0, null, i32 256, i1 false, null, null, i32 0, metadata !128, i32 1685} ; [ DW_TAG_subprogram ]
!1179 = metadata !{i32 786453, i32 0, metadata !"", i32 0, i32 0, i64 0, i64 0, i64 0, i32 0, null, metadata !1180, i32 0, i32 0} ; [ DW_TAG_subroutine_type ]
!1180 = metadata !{metadata !132, metadata !1181}
!1181 = metadata !{i32 786447, i32 0, metadata !"", i32 0, i32 0, i64 32, i64 32, i64 0, i32 64, metadata !1037} ; [ DW_TAG_pointer_type ]
!1182 = metadata !{i32 786478, i32 0, metadata !1009, metadata !"reverse", metadata !"reverse", metadata !"_ZN11ap_int_baseILi33ELb1ELb1EE7reverseEv", metadata !116, i32 1690, metadata !1183, i1 false, i1 false, i32 0, i32 0, null, i32 256, i1 false, null, null, i32 0, metadata !128, i32 1690} ; [ DW_TAG_subprogram ]
!1183 = metadata !{i32 786453, i32 0, metadata !"", i32 0, i32 0, i64 0, i64 0, i64 0, i32 0, null, metadata !1184, i32 0, i32 0} ; [ DW_TAG_subroutine_type ]
!1184 = metadata !{metadata !1098, metadata !1025}
!1185 = metadata !{i32 786478, i32 0, metadata !1009, metadata !"iszero", metadata !"iszero", metadata !"_ZNK11ap_int_baseILi33ELb1ELb1EE6iszeroEv", metadata !116, i32 1696, metadata !1142, i1 false, i1 false, i32 0, i32 0, null, i32 256, i1 false, null, null, i32 0, metadata !128, i32 1696} ; [ DW_TAG_subprogram ]
!1186 = metadata !{i32 786478, i32 0, metadata !1009, metadata !"is_zero", metadata !"is_zero", metadata !"_ZNK11ap_int_baseILi33ELb1ELb1EE7is_zeroEv", metadata !116, i32 1701, metadata !1142, i1 false, i1 false, i32 0, i32 0, null, i32 256, i1 false, null, null, i32 0, metadata !128, i32 1701} ; [ DW_TAG_subprogram ]
!1187 = metadata !{i32 786478, i32 0, metadata !1009, metadata !"sign", metadata !"sign", metadata !"_ZNK11ap_int_baseILi33ELb1ELb1EE4signEv", metadata !116, i32 1706, metadata !1142, i1 false, i1 false, i32 0, i32 0, null, i32 256, i1 false, null, null, i32 0, metadata !128, i32 1706} ; [ DW_TAG_subprogram ]
!1188 = metadata !{i32 786478, i32 0, metadata !1009, metadata !"clear", metadata !"clear", metadata !"_ZN11ap_int_baseILi33ELb1ELb1EE5clearEi", metadata !116, i32 1714, metadata !1055, i1 false, i1 false, i32 0, i32 0, null, i32 256, i1 false, null, null, i32 0, metadata !128, i32 1714} ; [ DW_TAG_subprogram ]
!1189 = metadata !{i32 786478, i32 0, metadata !1009, metadata !"invert", metadata !"invert", metadata !"_ZN11ap_int_baseILi33ELb1ELb1EE6invertEi", metadata !116, i32 1720, metadata !1055, i1 false, i1 false, i32 0, i32 0, null, i32 256, i1 false, null, null, i32 0, metadata !128, i32 1720} ; [ DW_TAG_subprogram ]
!1190 = metadata !{i32 786478, i32 0, metadata !1009, metadata !"test", metadata !"test", metadata !"_ZNK11ap_int_baseILi33ELb1ELb1EE4testEi", metadata !116, i32 1728, metadata !1191, i1 false, i1 false, i32 0, i32 0, null, i32 256, i1 false, null, null, i32 0, metadata !128, i32 1728} ; [ DW_TAG_subprogram ]
!1191 = metadata !{i32 786453, i32 0, metadata !"", i32 0, i32 0, i64 0, i64 0, i64 0, i32 0, null, metadata !1192, i32 0, i32 0} ; [ DW_TAG_subroutine_type ]
!1192 = metadata !{metadata !108, metadata !1140, metadata !132}
!1193 = metadata !{i32 786478, i32 0, metadata !1009, metadata !"set", metadata !"set", metadata !"_ZN11ap_int_baseILi33ELb1ELb1EE3setEi", metadata !116, i32 1734, metadata !1055, i1 false, i1 false, i32 0, i32 0, null, i32 256, i1 false, null, null, i32 0, metadata !128, i32 1734} ; [ DW_TAG_subprogram ]
!1194 = metadata !{i32 786478, i32 0, metadata !1009, metadata !"set", metadata !"set", metadata !"_ZN11ap_int_baseILi33ELb1ELb1EE3setEib", metadata !116, i32 1740, metadata !1195, i1 false, i1 false, i32 0, i32 0, null, i32 256, i1 false, null, null, i32 0, metadata !128, i32 1740} ; [ DW_TAG_subprogram ]
!1195 = metadata !{i32 786453, i32 0, metadata !"", i32 0, i32 0, i64 0, i64 0, i64 0, i32 0, null, metadata !1196, i32 0, i32 0} ; [ DW_TAG_subroutine_type ]
!1196 = metadata !{null, metadata !1025, metadata !132, metadata !108}
!1197 = metadata !{i32 786478, i32 0, metadata !1009, metadata !"lrotate", metadata !"lrotate", metadata !"_ZN11ap_int_baseILi33ELb1ELb1EE7lrotateEi", metadata !116, i32 1747, metadata !1055, i1 false, i1 false, i32 0, i32 0, null, i32 256, i1 false, null, null, i32 0, metadata !128, i32 1747} ; [ DW_TAG_subprogram ]
!1198 = metadata !{i32 786478, i32 0, metadata !1009, metadata !"rrotate", metadata !"rrotate", metadata !"_ZN11ap_int_baseILi33ELb1ELb1EE7rrotateEi", metadata !116, i32 1756, metadata !1055, i1 false, i1 false, i32 0, i32 0, null, i32 256, i1 false, null, null, i32 0, metadata !128, i32 1756} ; [ DW_TAG_subprogram ]
!1199 = metadata !{i32 786478, i32 0, metadata !1009, metadata !"set_bit", metadata !"set_bit", metadata !"_ZN11ap_int_baseILi33ELb1ELb1EE7set_bitEib", metadata !116, i32 1764, metadata !1195, i1 false, i1 false, i32 0, i32 0, null, i32 256, i1 false, null, null, i32 0, metadata !128, i32 1764} ; [ DW_TAG_subprogram ]
!1200 = metadata !{i32 786478, i32 0, metadata !1009, metadata !"get_bit", metadata !"get_bit", metadata !"_ZNK11ap_int_baseILi33ELb1ELb1EE7get_bitEi", metadata !116, i32 1769, metadata !1191, i1 false, i1 false, i32 0, i32 0, null, i32 256, i1 false, null, null, i32 0, metadata !128, i32 1769} ; [ DW_TAG_subprogram ]
!1201 = metadata !{i32 786478, i32 0, metadata !1009, metadata !"b_not", metadata !"b_not", metadata !"_ZN11ap_int_baseILi33ELb1ELb1EE5b_notEv", metadata !116, i32 1774, metadata !1023, i1 false, i1 false, i32 0, i32 0, null, i32 256, i1 false, null, null, i32 0, metadata !128, i32 1774} ; [ DW_TAG_subprogram ]
!1202 = metadata !{i32 786478, i32 0, metadata !1009, metadata !"countLeadingZeros", metadata !"countLeadingZeros", metadata !"_ZN11ap_int_baseILi33ELb1ELb1EE17countLeadingZerosEv", metadata !116, i32 1781, metadata !1203, i1 false, i1 false, i32 0, i32 0, null, i32 256, i1 false, null, null, i32 0, metadata !128, i32 1781} ; [ DW_TAG_subprogram ]
!1203 = metadata !{i32 786453, i32 0, metadata !"", i32 0, i32 0, i64 0, i64 0, i64 0, i32 0, null, metadata !1204, i32 0, i32 0} ; [ DW_TAG_subroutine_type ]
!1204 = metadata !{metadata !132, metadata !1025}
!1205 = metadata !{i32 786478, i32 0, metadata !1009, metadata !"operator++", metadata !"operator++", metadata !"_ZN11ap_int_baseILi33ELb1ELb1EEppEv", metadata !116, i32 1838, metadata !1183, i1 false, i1 false, i32 0, i32 0, null, i32 256, i1 false, null, null, i32 0, metadata !128, i32 1838} ; [ DW_TAG_subprogram ]
!1206 = metadata !{i32 786478, i32 0, metadata !1009, metadata !"operator--", metadata !"operator--", metadata !"_ZN11ap_int_baseILi33ELb1ELb1EEmmEv", metadata !116, i32 1842, metadata !1183, i1 false, i1 false, i32 0, i32 0, null, i32 256, i1 false, null, null, i32 0, metadata !128, i32 1842} ; [ DW_TAG_subprogram ]
!1207 = metadata !{i32 786478, i32 0, metadata !1009, metadata !"operator++", metadata !"operator++", metadata !"_ZN11ap_int_baseILi33ELb1ELb1EEppEi", metadata !116, i32 1850, metadata !1208, i1 false, i1 false, i32 0, i32 0, null, i32 256, i1 false, null, null, i32 0, metadata !128, i32 1850} ; [ DW_TAG_subprogram ]
!1208 = metadata !{i32 786453, i32 0, metadata !"", i32 0, i32 0, i64 0, i64 0, i64 0, i32 0, null, metadata !1209, i32 0, i32 0} ; [ DW_TAG_subroutine_type ]
!1209 = metadata !{metadata !1030, metadata !1025, metadata !132}
!1210 = metadata !{i32 786478, i32 0, metadata !1009, metadata !"operator--", metadata !"operator--", metadata !"_ZN11ap_int_baseILi33ELb1ELb1EEmmEi", metadata !116, i32 1855, metadata !1208, i1 false, i1 false, i32 0, i32 0, null, i32 256, i1 false, null, null, i32 0, metadata !128, i32 1855} ; [ DW_TAG_subprogram ]
!1211 = metadata !{i32 786478, i32 0, metadata !1009, metadata !"operator+", metadata !"operator+", metadata !"_ZNK11ap_int_baseILi33ELb1ELb1EEpsEv", metadata !116, i32 1864, metadata !1212, i1 false, i1 false, i32 0, i32 0, null, i32 256, i1 false, null, null, i32 0, metadata !128, i32 1864} ; [ DW_TAG_subprogram ]
!1212 = metadata !{i32 786453, i32 0, metadata !"", i32 0, i32 0, i64 0, i64 0, i64 0, i32 0, null, metadata !1213, i32 0, i32 0} ; [ DW_TAG_subroutine_type ]
!1213 = metadata !{metadata !1009, metadata !1140}
!1214 = metadata !{i32 786478, i32 0, metadata !1009, metadata !"operator!", metadata !"operator!", metadata !"_ZNK11ap_int_baseILi33ELb1ELb1EEntEv", metadata !116, i32 1870, metadata !1142, i1 false, i1 false, i32 0, i32 0, null, i32 256, i1 false, null, null, i32 0, metadata !128, i32 1870} ; [ DW_TAG_subprogram ]
!1215 = metadata !{i32 786478, i32 0, metadata !1009, metadata !"operator-", metadata !"operator-", metadata !"_ZNK11ap_int_baseILi33ELb1ELb1EEngEv", metadata !116, i32 1875, metadata !1216, i1 false, i1 false, i32 0, i32 0, null, i32 256, i1 false, null, null, i32 0, metadata !128, i32 1875} ; [ DW_TAG_subprogram ]
!1216 = metadata !{i32 786453, i32 0, metadata !"", i32 0, i32 0, i64 0, i64 0, i64 0, i32 0, null, metadata !1217, i32 0, i32 0} ; [ DW_TAG_subroutine_type ]
!1217 = metadata !{metadata !1218, metadata !1140}
!1218 = metadata !{i32 786434, null, metadata !"ap_int_base<34, true, true>", metadata !116, i32 650, i32 0, i32 0, i32 0, i32 4, null, null, i32 0} ; [ DW_TAG_class_type ]
!1219 = metadata !{i32 786478, i32 0, metadata !1009, metadata !"range", metadata !"range", metadata !"_ZN11ap_int_baseILi33ELb1ELb1EE5rangeEii", metadata !116, i32 2005, metadata !1220, i1 false, i1 false, i32 0, i32 0, null, i32 256, i1 false, null, null, i32 0, metadata !128, i32 2005} ; [ DW_TAG_subprogram ]
!1220 = metadata !{i32 786453, i32 0, metadata !"", i32 0, i32 0, i64 0, i64 0, i64 0, i32 0, null, metadata !1221, i32 0, i32 0} ; [ DW_TAG_subroutine_type ]
!1221 = metadata !{metadata !1222, metadata !1025, metadata !132, metadata !132}
!1222 = metadata !{i32 786434, null, metadata !"ap_range_ref<33, true>", metadata !116, i32 923, i32 0, i32 0, i32 0, i32 4, null, null, i32 0} ; [ DW_TAG_class_type ]
!1223 = metadata !{i32 786478, i32 0, metadata !1009, metadata !"operator()", metadata !"operator()", metadata !"_ZN11ap_int_baseILi33ELb1ELb1EEclEii", metadata !116, i32 2011, metadata !1220, i1 false, i1 false, i32 0, i32 0, null, i32 256, i1 false, null, null, i32 0, metadata !128, i32 2011} ; [ DW_TAG_subprogram ]
!1224 = metadata !{i32 786478, i32 0, metadata !1009, metadata !"range", metadata !"range", metadata !"_ZNK11ap_int_baseILi33ELb1ELb1EE5rangeEii", metadata !116, i32 2017, metadata !1225, i1 false, i1 false, i32 0, i32 0, null, i32 256, i1 false, null, null, i32 0, metadata !128, i32 2017} ; [ DW_TAG_subprogram ]
!1225 = metadata !{i32 786453, i32 0, metadata !"", i32 0, i32 0, i64 0, i64 0, i64 0, i32 0, null, metadata !1226, i32 0, i32 0} ; [ DW_TAG_subroutine_type ]
!1226 = metadata !{metadata !1222, metadata !1140, metadata !132, metadata !132}
!1227 = metadata !{i32 786478, i32 0, metadata !1009, metadata !"operator()", metadata !"operator()", metadata !"_ZNK11ap_int_baseILi33ELb1ELb1EEclEii", metadata !116, i32 2023, metadata !1225, i1 false, i1 false, i32 0, i32 0, null, i32 256, i1 false, null, null, i32 0, metadata !128, i32 2023} ; [ DW_TAG_subprogram ]
!1228 = metadata !{i32 786478, i32 0, metadata !1009, metadata !"operator[]", metadata !"operator[]", metadata !"_ZN11ap_int_baseILi33ELb1ELb1EEixEi", metadata !116, i32 2042, metadata !1229, i1 false, i1 false, i32 0, i32 0, null, i32 256, i1 false, null, null, i32 0, metadata !128, i32 2042} ; [ DW_TAG_subprogram ]
!1229 = metadata !{i32 786453, i32 0, metadata !"", i32 0, i32 0, i64 0, i64 0, i64 0, i32 0, null, metadata !1230, i32 0, i32 0} ; [ DW_TAG_subroutine_type ]
!1230 = metadata !{metadata !1231, metadata !1025, metadata !132}
!1231 = metadata !{i32 786434, null, metadata !"ap_bit_ref<33, true>", metadata !116, i32 1193, i64 64, i64 32, i32 0, i32 0, null, metadata !1232, i32 0, null, metadata !1265} ; [ DW_TAG_class_type ]
!1232 = metadata !{metadata !1233, metadata !1234, metadata !1235, metadata !1241, metadata !1245, metadata !1249, metadata !1250, metadata !1254, metadata !1257, metadata !1258, metadata !1261, metadata !1262}
!1233 = metadata !{i32 786445, metadata !1231, metadata !"d_bv", metadata !116, i32 1194, i64 32, i64 32, i64 0, i32 0, metadata !1098} ; [ DW_TAG_member ]
!1234 = metadata !{i32 786445, metadata !1231, metadata !"d_index", metadata !116, i32 1195, i64 32, i64 32, i64 32, i32 0, metadata !132} ; [ DW_TAG_member ]
!1235 = metadata !{i32 786478, i32 0, metadata !1231, metadata !"ap_bit_ref", metadata !"ap_bit_ref", metadata !"", metadata !116, i32 1198, metadata !1236, i1 false, i1 false, i32 0, i32 0, null, i32 256, i1 false, null, null, i32 0, metadata !128, i32 1198} ; [ DW_TAG_subprogram ]
!1236 = metadata !{i32 786453, i32 0, metadata !"", i32 0, i32 0, i64 0, i64 0, i64 0, i32 0, null, metadata !1237, i32 0, i32 0} ; [ DW_TAG_subroutine_type ]
!1237 = metadata !{null, metadata !1238, metadata !1239}
!1238 = metadata !{i32 786447, i32 0, metadata !"", i32 0, i32 0, i64 32, i64 32, i64 0, i32 64, metadata !1231} ; [ DW_TAG_pointer_type ]
!1239 = metadata !{i32 786448, null, null, null, i32 0, i64 0, i64 0, i64 0, i32 0, metadata !1240} ; [ DW_TAG_reference_type ]
!1240 = metadata !{i32 786470, null, metadata !"", null, i32 0, i64 0, i64 0, i64 0, i32 0, metadata !1231} ; [ DW_TAG_const_type ]
!1241 = metadata !{i32 786478, i32 0, metadata !1231, metadata !"ap_bit_ref", metadata !"ap_bit_ref", metadata !"", metadata !116, i32 1201, metadata !1242, i1 false, i1 false, i32 0, i32 0, null, i32 256, i1 false, null, null, i32 0, metadata !128, i32 1201} ; [ DW_TAG_subprogram ]
!1242 = metadata !{i32 786453, i32 0, metadata !"", i32 0, i32 0, i64 0, i64 0, i64 0, i32 0, null, metadata !1243, i32 0, i32 0} ; [ DW_TAG_subroutine_type ]
!1243 = metadata !{null, metadata !1238, metadata !1244, metadata !132}
!1244 = metadata !{i32 786447, null, metadata !"", null, i32 0, i64 32, i64 32, i64 0, i32 0, metadata !1009} ; [ DW_TAG_pointer_type ]
!1245 = metadata !{i32 786478, i32 0, metadata !1231, metadata !"operator _Bool", metadata !"operator _Bool", metadata !"_ZNK10ap_bit_refILi33ELb1EEcvbEv", metadata !116, i32 1203, metadata !1246, i1 false, i1 false, i32 0, i32 0, null, i32 256, i1 false, null, null, i32 0, metadata !128, i32 1203} ; [ DW_TAG_subprogram ]
!1246 = metadata !{i32 786453, i32 0, metadata !"", i32 0, i32 0, i64 0, i64 0, i64 0, i32 0, null, metadata !1247, i32 0, i32 0} ; [ DW_TAG_subroutine_type ]
!1247 = metadata !{metadata !108, metadata !1248}
!1248 = metadata !{i32 786447, i32 0, metadata !"", i32 0, i32 0, i64 32, i64 32, i64 0, i32 64, metadata !1240} ; [ DW_TAG_pointer_type ]
!1249 = metadata !{i32 786478, i32 0, metadata !1231, metadata !"to_bool", metadata !"to_bool", metadata !"_ZNK10ap_bit_refILi33ELb1EE7to_boolEv", metadata !116, i32 1204, metadata !1246, i1 false, i1 false, i32 0, i32 0, null, i32 256, i1 false, null, null, i32 0, metadata !128, i32 1204} ; [ DW_TAG_subprogram ]
!1250 = metadata !{i32 786478, i32 0, metadata !1231, metadata !"operator=", metadata !"operator=", metadata !"_ZN10ap_bit_refILi33ELb1EEaSEy", metadata !116, i32 1206, metadata !1251, i1 false, i1 false, i32 0, i32 0, null, i32 256, i1 false, null, null, i32 0, metadata !128, i32 1206} ; [ DW_TAG_subprogram ]
!1251 = metadata !{i32 786453, i32 0, metadata !"", i32 0, i32 0, i64 0, i64 0, i64 0, i32 0, null, metadata !1252, i32 0, i32 0} ; [ DW_TAG_subroutine_type ]
!1252 = metadata !{metadata !1253, metadata !1238, metadata !195}
!1253 = metadata !{i32 786448, null, null, null, i32 0, i64 0, i64 0, i64 0, i32 0, metadata !1231} ; [ DW_TAG_reference_type ]
!1254 = metadata !{i32 786478, i32 0, metadata !1231, metadata !"operator=", metadata !"operator=", metadata !"_ZN10ap_bit_refILi33ELb1EEaSERKS0_", metadata !116, i32 1226, metadata !1255, i1 false, i1 false, i32 0, i32 0, null, i32 256, i1 false, null, null, i32 0, metadata !128, i32 1226} ; [ DW_TAG_subprogram ]
!1255 = metadata !{i32 786453, i32 0, metadata !"", i32 0, i32 0, i64 0, i64 0, i64 0, i32 0, null, metadata !1256, i32 0, i32 0} ; [ DW_TAG_subroutine_type ]
!1256 = metadata !{metadata !1253, metadata !1238, metadata !1239}
!1257 = metadata !{i32 786478, i32 0, metadata !1231, metadata !"get", metadata !"get", metadata !"_ZNK10ap_bit_refILi33ELb1EE3getEv", metadata !116, i32 1334, metadata !1246, i1 false, i1 false, i32 0, i32 0, null, i32 256, i1 false, null, null, i32 0, metadata !128, i32 1334} ; [ DW_TAG_subprogram ]
!1258 = metadata !{i32 786478, i32 0, metadata !1231, metadata !"get", metadata !"get", metadata !"_ZN10ap_bit_refILi33ELb1EE3getEv", metadata !116, i32 1338, metadata !1259, i1 false, i1 false, i32 0, i32 0, null, i32 256, i1 false, null, null, i32 0, metadata !128, i32 1338} ; [ DW_TAG_subprogram ]
!1259 = metadata !{i32 786453, i32 0, metadata !"", i32 0, i32 0, i64 0, i64 0, i64 0, i32 0, null, metadata !1260, i32 0, i32 0} ; [ DW_TAG_subroutine_type ]
!1260 = metadata !{metadata !108, metadata !1238}
!1261 = metadata !{i32 786478, i32 0, metadata !1231, metadata !"operator~", metadata !"operator~", metadata !"_ZNK10ap_bit_refILi33ELb1EEcoEv", metadata !116, i32 1347, metadata !1246, i1 false, i1 false, i32 0, i32 0, null, i32 256, i1 false, null, null, i32 0, metadata !128, i32 1347} ; [ DW_TAG_subprogram ]
!1262 = metadata !{i32 786478, i32 0, metadata !1231, metadata !"length", metadata !"length", metadata !"_ZNK10ap_bit_refILi33ELb1EE6lengthEv", metadata !116, i32 1352, metadata !1263, i1 false, i1 false, i32 0, i32 0, null, i32 256, i1 false, null, null, i32 0, metadata !128, i32 1352} ; [ DW_TAG_subprogram ]
!1263 = metadata !{i32 786453, i32 0, metadata !"", i32 0, i32 0, i64 0, i64 0, i64 0, i32 0, null, metadata !1264, i32 0, i32 0} ; [ DW_TAG_subroutine_type ]
!1264 = metadata !{metadata !132, metadata !1248}
!1265 = metadata !{metadata !1266, metadata !361}
!1266 = metadata !{i32 786480, null, metadata !"_AP_W", metadata !132, i64 33, null, i32 0, i32 0} ; [ DW_TAG_template_value_parameter ]
!1267 = metadata !{i32 786478, i32 0, metadata !1009, metadata !"operator[]", metadata !"operator[]", metadata !"_ZNK11ap_int_baseILi33ELb1ELb1EEixEi", metadata !116, i32 2056, metadata !1191, i1 false, i1 false, i32 0, i32 0, null, i32 256, i1 false, null, null, i32 0, metadata !128, i32 2056} ; [ DW_TAG_subprogram ]
!1268 = metadata !{i32 786478, i32 0, metadata !1009, metadata !"bit", metadata !"bit", metadata !"_ZN11ap_int_baseILi33ELb1ELb1EE3bitEi", metadata !116, i32 2070, metadata !1229, i1 false, i1 false, i32 0, i32 0, null, i32 256, i1 false, null, null, i32 0, metadata !128, i32 2070} ; [ DW_TAG_subprogram ]
!1269 = metadata !{i32 786478, i32 0, metadata !1009, metadata !"bit", metadata !"bit", metadata !"_ZNK11ap_int_baseILi33ELb1ELb1EE3bitEi", metadata !116, i32 2084, metadata !1191, i1 false, i1 false, i32 0, i32 0, null, i32 256, i1 false, null, null, i32 0, metadata !128, i32 2084} ; [ DW_TAG_subprogram ]
!1270 = metadata !{i32 786478, i32 0, metadata !1009, metadata !"and_reduce", metadata !"and_reduce", metadata !"_ZN11ap_int_baseILi33ELb1ELb1EE10and_reduceEv", metadata !116, i32 2264, metadata !1271, i1 false, i1 false, i32 0, i32 0, null, i32 256, i1 false, null, null, i32 0, metadata !128, i32 2264} ; [ DW_TAG_subprogram ]
!1271 = metadata !{i32 786453, i32 0, metadata !"", i32 0, i32 0, i64 0, i64 0, i64 0, i32 0, null, metadata !1272, i32 0, i32 0} ; [ DW_TAG_subroutine_type ]
!1272 = metadata !{metadata !108, metadata !1025}
!1273 = metadata !{i32 786478, i32 0, metadata !1009, metadata !"nand_reduce", metadata !"nand_reduce", metadata !"_ZN11ap_int_baseILi33ELb1ELb1EE11nand_reduceEv", metadata !116, i32 2267, metadata !1271, i1 false, i1 false, i32 0, i32 0, null, i32 256, i1 false, null, null, i32 0, metadata !128, i32 2267} ; [ DW_TAG_subprogram ]
!1274 = metadata !{i32 786478, i32 0, metadata !1009, metadata !"or_reduce", metadata !"or_reduce", metadata !"_ZN11ap_int_baseILi33ELb1ELb1EE9or_reduceEv", metadata !116, i32 2270, metadata !1271, i1 false, i1 false, i32 0, i32 0, null, i32 256, i1 false, null, null, i32 0, metadata !128, i32 2270} ; [ DW_TAG_subprogram ]
!1275 = metadata !{i32 786478, i32 0, metadata !1009, metadata !"nor_reduce", metadata !"nor_reduce", metadata !"_ZN11ap_int_baseILi33ELb1ELb1EE10nor_reduceEv", metadata !116, i32 2273, metadata !1271, i1 false, i1 false, i32 0, i32 0, null, i32 256, i1 false, null, null, i32 0, metadata !128, i32 2273} ; [ DW_TAG_subprogram ]
!1276 = metadata !{i32 786478, i32 0, metadata !1009, metadata !"xor_reduce", metadata !"xor_reduce", metadata !"_ZN11ap_int_baseILi33ELb1ELb1EE10xor_reduceEv", metadata !116, i32 2276, metadata !1271, i1 false, i1 false, i32 0, i32 0, null, i32 256, i1 false, null, null, i32 0, metadata !128, i32 2276} ; [ DW_TAG_subprogram ]
!1277 = metadata !{i32 786478, i32 0, metadata !1009, metadata !"xnor_reduce", metadata !"xnor_reduce", metadata !"_ZN11ap_int_baseILi33ELb1ELb1EE11xnor_reduceEv", metadata !116, i32 2279, metadata !1271, i1 false, i1 false, i32 0, i32 0, null, i32 256, i1 false, null, null, i32 0, metadata !128, i32 2279} ; [ DW_TAG_subprogram ]
!1278 = metadata !{i32 786478, i32 0, metadata !1009, metadata !"and_reduce", metadata !"and_reduce", metadata !"_ZNK11ap_int_baseILi33ELb1ELb1EE10and_reduceEv", metadata !116, i32 2283, metadata !1142, i1 false, i1 false, i32 0, i32 0, null, i32 256, i1 false, null, null, i32 0, metadata !128, i32 2283} ; [ DW_TAG_subprogram ]
!1279 = metadata !{i32 786478, i32 0, metadata !1009, metadata !"nand_reduce", metadata !"nand_reduce", metadata !"_ZNK11ap_int_baseILi33ELb1ELb1EE11nand_reduceEv", metadata !116, i32 2286, metadata !1142, i1 false, i1 false, i32 0, i32 0, null, i32 256, i1 false, null, null, i32 0, metadata !128, i32 2286} ; [ DW_TAG_subprogram ]
!1280 = metadata !{i32 786478, i32 0, metadata !1009, metadata !"or_reduce", metadata !"or_reduce", metadata !"_ZNK11ap_int_baseILi33ELb1ELb1EE9or_reduceEv", metadata !116, i32 2289, metadata !1142, i1 false, i1 false, i32 0, i32 0, null, i32 256, i1 false, null, null, i32 0, metadata !128, i32 2289} ; [ DW_TAG_subprogram ]
!1281 = metadata !{i32 786478, i32 0, metadata !1009, metadata !"nor_reduce", metadata !"nor_reduce", metadata !"_ZNK11ap_int_baseILi33ELb1ELb1EE10nor_reduceEv", metadata !116, i32 2292, metadata !1142, i1 false, i1 false, i32 0, i32 0, null, i32 256, i1 false, null, null, i32 0, metadata !128, i32 2292} ; [ DW_TAG_subprogram ]
!1282 = metadata !{i32 786478, i32 0, metadata !1009, metadata !"xor_reduce", metadata !"xor_reduce", metadata !"_ZNK11ap_int_baseILi33ELb1ELb1EE10xor_reduceEv", metadata !116, i32 2295, metadata !1142, i1 false, i1 false, i32 0, i32 0, null, i32 256, i1 false, null, null, i32 0, metadata !128, i32 2295} ; [ DW_TAG_subprogram ]
!1283 = metadata !{i32 786478, i32 0, metadata !1009, metadata !"xnor_reduce", metadata !"xnor_reduce", metadata !"_ZNK11ap_int_baseILi33ELb1ELb1EE11xnor_reduceEv", metadata !116, i32 2298, metadata !1142, i1 false, i1 false, i32 0, i32 0, null, i32 256, i1 false, null, null, i32 0, metadata !128, i32 2298} ; [ DW_TAG_subprogram ]
!1284 = metadata !{i32 786478, i32 0, metadata !1009, metadata !"to_string", metadata !"to_string", metadata !"_ZNK11ap_int_baseILi33ELb1ELb1EE9to_stringEPci8BaseModeb", metadata !116, i32 2305, metadata !1285, i1 false, i1 false, i32 0, i32 0, null, i32 256, i1 false, null, null, i32 0, metadata !128, i32 2305} ; [ DW_TAG_subprogram ]
!1285 = metadata !{i32 786453, i32 0, metadata !"", i32 0, i32 0, i64 0, i64 0, i64 0, i32 0, null, metadata !1286, i32 0, i32 0} ; [ DW_TAG_subroutine_type ]
!1286 = metadata !{null, metadata !1140, metadata !619, metadata !132, metadata !620, metadata !108}
!1287 = metadata !{i32 786478, i32 0, metadata !1009, metadata !"to_string", metadata !"to_string", metadata !"_ZNK11ap_int_baseILi33ELb1ELb1EE9to_stringE8BaseModeb", metadata !116, i32 2332, metadata !1288, i1 false, i1 false, i32 0, i32 0, null, i32 256, i1 false, null, null, i32 0, metadata !128, i32 2332} ; [ DW_TAG_subprogram ]
!1288 = metadata !{i32 786453, i32 0, metadata !"", i32 0, i32 0, i64 0, i64 0, i64 0, i32 0, null, metadata !1289, i32 0, i32 0} ; [ DW_TAG_subroutine_type ]
!1289 = metadata !{metadata !619, metadata !1140, metadata !620, metadata !108}
!1290 = metadata !{i32 786478, i32 0, metadata !1009, metadata !"to_string", metadata !"to_string", metadata !"_ZNK11ap_int_baseILi33ELb1ELb1EE9to_stringEab", metadata !116, i32 2336, metadata !1291, i1 false, i1 false, i32 0, i32 0, null, i32 256, i1 false, null, null, i32 0, metadata !128, i32 2336} ; [ DW_TAG_subprogram ]
!1291 = metadata !{i32 786453, i32 0, metadata !"", i32 0, i32 0, i64 0, i64 0, i64 0, i32 0, null, metadata !1292, i32 0, i32 0} ; [ DW_TAG_subroutine_type ]
!1292 = metadata !{metadata !619, metadata !1140, metadata !158, metadata !108}
!1293 = metadata !{metadata !1266, metadata !361, metadata !633}
!1294 = metadata !{i32 786478, i32 0, metadata !801, metadata !"range", metadata !"range", metadata !"_ZN11ap_int_baseILi32ELb1ELb1EE5rangeEii", metadata !116, i32 2005, metadata !1295, i1 false, i1 false, i32 0, i32 0, null, i32 256, i1 false, null, null, i32 0, metadata !128, i32 2005} ; [ DW_TAG_subprogram ]
!1295 = metadata !{i32 786453, i32 0, metadata !"", i32 0, i32 0, i64 0, i64 0, i64 0, i32 0, null, metadata !1296, i32 0, i32 0} ; [ DW_TAG_subroutine_type ]
!1296 = metadata !{metadata !1297, metadata !817, metadata !132, metadata !132}
!1297 = metadata !{i32 786434, null, metadata !"ap_range_ref<32, true>", metadata !116, i32 923, i32 0, i32 0, i32 0, i32 4, null, null, i32 0} ; [ DW_TAG_class_type ]
!1298 = metadata !{i32 786478, i32 0, metadata !801, metadata !"operator()", metadata !"operator()", metadata !"_ZN11ap_int_baseILi32ELb1ELb1EEclEii", metadata !116, i32 2011, metadata !1295, i1 false, i1 false, i32 0, i32 0, null, i32 256, i1 false, null, null, i32 0, metadata !128, i32 2011} ; [ DW_TAG_subprogram ]
!1299 = metadata !{i32 786478, i32 0, metadata !801, metadata !"range", metadata !"range", metadata !"_ZNK11ap_int_baseILi32ELb1ELb1EE5rangeEii", metadata !116, i32 2017, metadata !1300, i1 false, i1 false, i32 0, i32 0, null, i32 256, i1 false, null, null, i32 0, metadata !128, i32 2017} ; [ DW_TAG_subprogram ]
!1300 = metadata !{i32 786453, i32 0, metadata !"", i32 0, i32 0, i64 0, i64 0, i64 0, i32 0, null, metadata !1301, i32 0, i32 0} ; [ DW_TAG_subroutine_type ]
!1301 = metadata !{metadata !1297, metadata !931, metadata !132, metadata !132}
!1302 = metadata !{i32 786478, i32 0, metadata !801, metadata !"operator()", metadata !"operator()", metadata !"_ZNK11ap_int_baseILi32ELb1ELb1EEclEii", metadata !116, i32 2023, metadata !1300, i1 false, i1 false, i32 0, i32 0, null, i32 256, i1 false, null, null, i32 0, metadata !128, i32 2023} ; [ DW_TAG_subprogram ]
!1303 = metadata !{i32 786478, i32 0, metadata !801, metadata !"operator[]", metadata !"operator[]", metadata !"_ZN11ap_int_baseILi32ELb1ELb1EEixEi", metadata !116, i32 2042, metadata !1304, i1 false, i1 false, i32 0, i32 0, null, i32 256, i1 false, null, null, i32 0, metadata !128, i32 2042} ; [ DW_TAG_subprogram ]
!1304 = metadata !{i32 786453, i32 0, metadata !"", i32 0, i32 0, i64 0, i64 0, i64 0, i32 0, null, metadata !1305, i32 0, i32 0} ; [ DW_TAG_subroutine_type ]
!1305 = metadata !{metadata !1306, metadata !817, metadata !132}
!1306 = metadata !{i32 786434, null, metadata !"ap_bit_ref<32, true>", metadata !116, i32 1193, i32 0, i32 0, i32 0, i32 4, null, null, i32 0} ; [ DW_TAG_class_type ]
!1307 = metadata !{i32 786478, i32 0, metadata !801, metadata !"operator[]", metadata !"operator[]", metadata !"_ZNK11ap_int_baseILi32ELb1ELb1EEixEi", metadata !116, i32 2056, metadata !982, i1 false, i1 false, i32 0, i32 0, null, i32 256, i1 false, null, null, i32 0, metadata !128, i32 2056} ; [ DW_TAG_subprogram ]
!1308 = metadata !{i32 786478, i32 0, metadata !801, metadata !"bit", metadata !"bit", metadata !"_ZN11ap_int_baseILi32ELb1ELb1EE3bitEi", metadata !116, i32 2070, metadata !1304, i1 false, i1 false, i32 0, i32 0, null, i32 256, i1 false, null, null, i32 0, metadata !128, i32 2070} ; [ DW_TAG_subprogram ]
!1309 = metadata !{i32 786478, i32 0, metadata !801, metadata !"bit", metadata !"bit", metadata !"_ZNK11ap_int_baseILi32ELb1ELb1EE3bitEi", metadata !116, i32 2084, metadata !982, i1 false, i1 false, i32 0, i32 0, null, i32 256, i1 false, null, null, i32 0, metadata !128, i32 2084} ; [ DW_TAG_subprogram ]
!1310 = metadata !{i32 786478, i32 0, metadata !801, metadata !"and_reduce", metadata !"and_reduce", metadata !"_ZN11ap_int_baseILi32ELb1ELb1EE10and_reduceEv", metadata !116, i32 2264, metadata !1311, i1 false, i1 false, i32 0, i32 0, null, i32 256, i1 false, null, null, i32 0, metadata !128, i32 2264} ; [ DW_TAG_subprogram ]
!1311 = metadata !{i32 786453, i32 0, metadata !"", i32 0, i32 0, i64 0, i64 0, i64 0, i32 0, null, metadata !1312, i32 0, i32 0} ; [ DW_TAG_subroutine_type ]
!1312 = metadata !{metadata !108, metadata !817}
!1313 = metadata !{i32 786478, i32 0, metadata !801, metadata !"nand_reduce", metadata !"nand_reduce", metadata !"_ZN11ap_int_baseILi32ELb1ELb1EE11nand_reduceEv", metadata !116, i32 2267, metadata !1311, i1 false, i1 false, i32 0, i32 0, null, i32 256, i1 false, null, null, i32 0, metadata !128, i32 2267} ; [ DW_TAG_subprogram ]
!1314 = metadata !{i32 786478, i32 0, metadata !801, metadata !"or_reduce", metadata !"or_reduce", metadata !"_ZN11ap_int_baseILi32ELb1ELb1EE9or_reduceEv", metadata !116, i32 2270, metadata !1311, i1 false, i1 false, i32 0, i32 0, null, i32 256, i1 false, null, null, i32 0, metadata !128, i32 2270} ; [ DW_TAG_subprogram ]
!1315 = metadata !{i32 786478, i32 0, metadata !801, metadata !"nor_reduce", metadata !"nor_reduce", metadata !"_ZN11ap_int_baseILi32ELb1ELb1EE10nor_reduceEv", metadata !116, i32 2273, metadata !1311, i1 false, i1 false, i32 0, i32 0, null, i32 256, i1 false, null, null, i32 0, metadata !128, i32 2273} ; [ DW_TAG_subprogram ]
!1316 = metadata !{i32 786478, i32 0, metadata !801, metadata !"xor_reduce", metadata !"xor_reduce", metadata !"_ZN11ap_int_baseILi32ELb1ELb1EE10xor_reduceEv", metadata !116, i32 2276, metadata !1311, i1 false, i1 false, i32 0, i32 0, null, i32 256, i1 false, null, null, i32 0, metadata !128, i32 2276} ; [ DW_TAG_subprogram ]
